(dp0
S'METTS MARK'
p1
(dp2
S'to_messages'
p3
I807
sS'deferral_payments'
p4
S'NaN'
p5
sS'frac_bonus'
p6
F0.075
sS'expenses'
p7
I94299
sS'poi'
p8
I00
sS'deferred_income'
p9
g5
sS'email_address'
p10
S'mark.metts@enron.com'
p11
sS'long_term_incentive'
p12
g5
sS'frac_expenses'
p13
F0.41221263928170204
sS'multiply_emails'
p14
F0.0016237234542580009
sS'frac_total_stock_value'
p15
F0.011913277759404088
sS'restricted_stock_deferred'
p16
g5
sS'shared_receipt_with_poi'
p17
I702
sS'loan_advances'
p18
g5
sS'from_messages'
p19
I29
sS'other'
p20
I1740
sS'director_fees'
p21
g5
sS'bonus'
p22
I600000
sS'total_stock_value'
p23
I585062
sS'from_poi_to_this_person'
p24
I38
sS'from_this_person_to_poi'
p25
I1
sS'frac_from_this_person_to_poi'
p26
F0.034482758620689655
sS'frac_from_poi_to_this_person'
p27
F0.04708798017348203
sS'restricted_stock'
p28
I585062
sS'salary'
p29
I365788
sS'total_payments'
p30
I1061827
sS'frac_total_payments'
p31
F0.010253274646850637
sS'exercised_stock_options'
p32
g5
sS'frac_salary'
p33
F0.329165684296536
sS'frac_shared_receipt_with_poi'
p34
F0.8698884758364313
ssS'BAXTER JOHN C'
p35
(dp36
g3
g5
sg4
I1295738
sg6
F0.15
sg7
I11200
sg8
I00
sg9
I-1386055
sg10
g5
sg12
I1586055
sg13
F0.04895896626639797
sg14
S'NaN'
p37
sg15
F0.21631523370824213
sg16
g5
sg17
g5
sg18
g5
sg19
g5
sg20
I2660303
sg21
g5
sg22
I1200000
sg23
I10623258
sg24
g5
sg25
g5
sg26
g37
sg27
g37
sg28
I3942714
sg29
I267102
sg30
I5634343
sg31
F0.05440666533584129
sg32
I6680544
sg33
F0.2403600244047737
sg34
g37
ssS'ELLIOTT STEVEN'
p38
(dp39
g3
g5
sg4
g5
sg6
F0.04375
sg7
I78552
sg8
I00
sg9
I-400729
sg10
S'steven.elliott@enron.com'
p40
sg12
g5
sg13
F0.34337720697840124
sg14
g37
sg15
F0.13599520245111402
sg16
g5
sg17
g5
sg18
g5
sg19
g5
sg20
I12961
sg21
g5
sg22
I350000
sg23
I6678735
sg24
g5
sg25
g5
sg26
g37
sg27
g37
sg28
I1788391
sg29
I170941
sg30
I211725
sg31
F0.002044471062239377
sg32
I4890344
sg33
F0.15382656412822224
sg34
g37
ssS'CORDES WILLIAM R'
p41
(dp42
g3
I764
sg4
g5
sg6
g37
sg7
g5
sg8
I00
sg9
g5
sg10
S'bill.cordes@enron.com'
p43
sg12
g5
sg13
g37
sg14
F0.0
sg15
F0.02113995827903185
sg16
g5
sg17
I58
sg18
g5
sg19
I12
sg20
g5
sg21
g5
sg22
g5
sg23
I1038185
sg24
I10
sg25
I0
sg26
F0.0
sg27
F0.013089005235602094
sg28
I386335
sg29
g5
sg30
g5
sg31
g37
sg32
I651850
sg33
g37
sg34
F0.07591623036649214
ssS'HANNON KEVIN P'
p44
(dp45
g3
I1045
sg4
g5
sg6
F0.1875
sg7
I34039
sg8
I01
sg9
I-3117011
sg10
S'kevin.hannon@enron.com'
p46
sg12
I1617011
sg13
F0.14879591542338577
sg14
F0.020095693779904306
sg15
F0.1301375452916202
sg16
g5
sg17
I1035
sg18
g5
sg19
I32
sg20
I11350
sg21
g5
sg22
I1500000
sg23
I6391065
sg24
I32
sg25
I21
sg26
F0.65625
sg27
F0.03062200956937799
sg28
I853064
sg29
I243293
sg30
I288682
sg31
F0.002787587649967589
sg32
I5538001
sg33
F0.2189347568251477
sg34
F0.9904306220095693
ssS'MORDAUNT KRISTINA M'
p47
(dp48
g3
g5
sg4
g5
sg6
F0.040625
sg7
I35018
sg8
I00
sg9
g5
sg10
S'kristina.mordaunt@enron.com'
p49
sg12
g5
sg13
F0.1530754536354218
sg14
g37
sg15
F0.00424576804785364
sg16
g5
sg17
g5
sg18
g5
sg19
g5
sg20
I1411
sg21
g5
sg22
I325000
sg23
I208510
sg24
g5
sg25
g5
sg26
g37
sg27
g37
sg28
I208510
sg29
I267093
sg30
I628522
sg31
F0.006069170107360102
sg32
g5
sg33
F0.24035192547545214
sg34
g37
ssS'MEYER ROCKFORD G'
p50
(dp51
g3
I232
sg4
I1848227
sg6
g37
sg7
g5
sg8
I00
sg9
g5
sg10
S'rockford.meyer@enron.com'
p52
sg12
g5
sg13
g37
sg14
F0.0
sg15
F0.019463886821763955
sg16
g5
sg17
I22
sg18
g5
sg19
I28
sg20
g5
sg21
g5
sg22
g5
sg23
I955873
sg24
I0
sg25
I0
sg26
F0.0
sg27
F0.0
sg28
I462384
sg29
g5
sg30
I1848227
sg31
F0.017846955333330958
sg32
I493489
sg33
g37
sg34
F0.09482758620689655
ssS'MCMAHON JEFFREY'
p53
(dp54
g3
I2355
sg4
g5
sg6
F0.325
sg7
I137108
sg8
I00
sg9
g5
sg10
S'jeffrey.mcmahon@enron.com'
p55
sg12
I694862
sg13
F0.5993451738261869
sg14
F0.013340410474168436
sg15
F0.033859750741996375
sg16
g5
sg17
I2228
sg18
g5
sg19
I48
sg20
I297353
sg21
g5
sg22
I2600000
sg23
I1662855
sg24
I58
sg25
I26
sg26
F0.5416666666666666
sg27
F0.024628450106157114
sg28
I558801
sg29
I370448
sg30
I4099771
sg31
F0.03958844336430838
sg32
I1104054
sg33
F0.3333591299230242
sg34
F0.9460721868365181
ssS'HORTON STANLEY C'
p56
(dp57
g3
I2350
sg4
I3131860
sg6
g37
sg7
g5
sg8
I00
sg9
g5
sg10
S'stanley.horton@enron.com'
p58
sg12
g5
sg13
g37
sg14
F0.000261743768713688
sg15
F0.14776290927495575
sg16
g5
sg17
I1074
sg18
g5
sg19
I1073
sg20
g5
sg21
g5
sg22
g5
sg23
I7256648
sg24
I44
sg25
I15
sg26
F0.013979496738117428
sg27
F0.01872340425531915
sg28
I2046079
sg29
g5
sg30
I3131860
sg31
F0.030242045771566962
sg32
I5210569
sg33
g37
sg34
F0.4570212765957447
ssS'PIPER GREGORY F'
p59
(dp60
g3
I1238
sg4
I1130036
sg6
F0.05
sg7
I43057
sg8
I00
sg9
I-33333
sg10
S'greg.piper@enron.com'
p61
sg12
g5
sg13
F0.1882166259403837
sg14
F0.010653626162511462
sg15
F0.017924834083953196
sg16
I-409554
sg17
I742
sg18
g5
sg19
I222
sg20
I778
sg21
g5
sg22
I400000
sg23
I880290
sg24
I61
sg25
I48
sg26
F0.21621621621621623
sg27
F0.049273021001615507
sg28
I409554
sg29
I197091
sg30
I1737629
sg31
F0.016778992596093736
sg32
I880290
sg33
F0.1773584532124853
sg34
F0.5993537964458805
ssS'HUMPHREY GENE E'
p62
(dp63
g3
I128
sg4
I2964506
sg6
g37
sg7
I4994
sg8
I00
sg9
g5
sg10
S'gene.humphrey@enron.com'
p64
sg12
g5
sg13
F0.021830453351284956
sg14
F0.078125
sg15
F0.04648267917635969
sg16
g5
sg17
I119
sg18
g5
sg19
I17
sg20
g5
sg21
g5
sg22
g5
sg23
I2282768
sg24
I10
sg25
I17
sg26
F1.0
sg27
F0.078125
sg28
g5
sg29
I130724
sg30
I3100224
sg31
F0.029936560417806166
sg32
I2282768
sg33
F0.1176360485143864
sg34
F0.9296875
ssS'UMANOFF ADAM S'
p65
(dp66
g3
I111
sg4
g5
sg6
F0.09859375
sg7
I53122
sg8
I00
sg9
g5
sg10
S'adam.umanoff@enron.com'
p67
sg12
g5
sg13
F0.2322141255360351
sg14
F0.0
sg15
g37
sg16
g5
sg17
I41
sg18
g5
sg19
I18
sg20
g5
sg21
g5
sg22
I788750
sg23
g5
sg24
I12
sg25
I0
sg26
F0.0
sg27
F0.10810810810810811
sg28
g5
sg29
I288589
sg30
I1130461
sg31
F0.010916022205645004
sg32
g5
sg33
F0.2596957682194414
sg34
F0.36936936936936937
ssS'BLACHMAN JEREMY M'
p68
(dp69
g3
I2475
sg4
g5
sg6
F0.10625
sg7
I84208
sg8
I00
sg9
g5
sg10
S'jeremy.blachman@enron.com'
p70
sg12
I831809
sg13
F0.3681014849429322
sg14
F0.001443001443001443
sg15
F0.01943295630685009
sg16
g5
sg17
I2326
sg18
g5
sg19
I14
sg20
I272
sg21
g5
sg22
I850000
sg23
I954354
sg24
I25
sg25
I2
sg26
F0.14285714285714285
sg27
F0.010101010101010102
sg28
I189041
sg29
I248546
sg30
I2014835
sg31
F0.01945576503807805
sg32
I765313
sg33
F0.22366183190582206
sg34
F0.9397979797979797
ssS'SUNDE MARTIN'
p71
(dp72
g3
I2647
sg4
g5
sg6
F0.0875
sg7
g5
sg8
I00
sg9
g5
sg10
S'marty.sunde@enron.com'
p73
sg12
I476451
sg13
g37
sg14
F0.004781977611198377
sg15
F0.014231702095850876
sg16
g5
sg17
I2565
sg18
g5
sg19
I38
sg20
I111122
sg21
g5
sg22
I700000
sg23
I698920
sg24
I37
sg25
I13
sg26
F0.34210526315789475
sg27
F0.013978088401964487
sg28
I698920
sg29
I257486
sg30
I1545059
sg31
F0.014919487141114698
sg32
g5
sg33
F0.2317067683652221
sg34
F0.9690215338118625
ssS'GIBBS DANA R'
p74
(dp75
g3
I169
sg4
I504610
sg6
g37
sg7
g5
sg8
I00
sg9
g5
sg10
S'dana.gibbs@enron.com'
p76
sg12
I461912
sg13
g37
sg14
F0.0
sg15
F0.04516944566856522
sg16
g5
sg17
I23
sg18
g5
sg19
I12
sg20
g5
sg21
g5
sg22
g5
sg23
I2218275
sg24
I0
sg25
I0
sg26
F0.0
sg27
F0.0
sg28
g5
sg29
g5
sg30
I966522
sg31
F0.009332985051447525
sg32
I2218275
sg33
g37
sg34
F0.13609467455621302
ssS'LOWRY CHARLES P'
p77
(dp78
g3
g5
sg4
g5
sg6
g37
sg7
g5
sg8
I00
sg9
g5
sg10
g5
sg12
g5
sg13
g37
sg14
g37
sg15
F0.0075789942748614655
sg16
I-153686
sg17
g5
sg18
g5
sg19
g5
sg20
g5
sg21
g5
sg22
g5
sg23
I372205
sg24
g5
sg25
g5
sg26
g37
sg27
g37
sg28
I153686
sg29
g5
sg30
g5
sg31
g37
sg32
I372205
sg33
g37
sg34
g37
ssS'COLWELL WESLEY'
p79
(dp80
g3
I1758
sg4
I27610
sg6
F0.15
sg7
I16514
sg8
I01
sg9
I-144062
sg10
S'wes.colwell@enron.com'
p81
sg12
g5
sg13
F0.0721882472252943
sg14
F0.03754266211604096
sg15
F0.014217896375566742
sg16
g5
sg17
I1132
sg18
g5
sg19
I40
sg20
I101740
sg21
g5
sg22
I1200000
sg23
I698242
sg24
I240
sg25
I11
sg26
F0.275
sg27
F0.13651877133105803
sg28
I698242
sg29
I288542
sg30
I1490344
sg31
F0.014391145026719008
sg32
g5
sg33
F0.2596534738107622
sg34
F0.6439135381114903
ssS'MULLER MARK S'
p82
(dp83
g3
I136
sg4
I842924
sg6
F0.1375
sg7
g5
sg8
I00
sg9
I-719000
sg10
S's..muller@enron.com'
p84
sg12
I1725545
sg13
g37
sg14
F0.0
sg15
F0.028850453057720656
sg16
g5
sg17
I114
sg18
g5
sg19
I16
sg20
I947
sg21
g5
sg22
I1100000
sg23
I1416848
sg24
I12
sg25
I0
sg26
F0.0
sg27
F0.08823529411764706
sg28
I360528
sg29
I251654
sg30
I3202070
sg31
F0.030920011591757432
sg32
I1056320
sg33
F0.2264586621648618
sg34
F0.8382352941176471
ssS'JACKSON CHARLENE R'
p85
(dp86
g3
I258
sg4
g5
sg6
F0.03125
sg7
I10181
sg8
I00
sg9
g5
sg10
S'charlene.jackson@enron.com'
p87
sg12
g5
sg13
F0.044504574603410514
sg14
F0.0328765227021041
sg15
F0.014777720369330304
sg16
g5
sg17
I117
sg18
g5
sg19
I56
sg20
I2435
sg21
g5
sg22
I250000
sg23
I725735
sg24
I25
sg25
I19
sg26
F0.3392857142857143
sg27
F0.09689922480620156
sg28
I540672
sg29
I288558
sg30
I551174
sg31
F0.005322277923054558
sg32
I185063
sg33
F0.25966787190733387
sg34
F0.45348837209302323
ssS'WESTFAHL RICHARD K'
p88
(dp89
g3
g5
sg4
g5
sg6
g37
sg7
I51870
sg8
I00
sg9
I-10800
sg10
S'dick.westfahl@enron.com'
p90
sg12
I256191
sg13
F0.22674121252125562
sg14
g37
sg15
F0.007838106060430203
sg16
g5
sg17
g5
sg18
g5
sg19
g5
sg20
I401130
sg21
g5
sg22
g5
sg23
I384930
sg24
g5
sg25
g5
sg26
g37
sg27
g37
sg28
I384930
sg29
I63744
sg30
I762135
sg31
F0.00735937160476943
sg32
g5
sg33
F0.05736201674138679
sg34
g37
ssS'WALTERS GARETH W'
p91
(dp92
g3
g5
sg4
I53625
sg6
g37
sg7
I33785
sg8
I00
sg9
g5
sg10
g5
sg12
g5
sg13
F0.14768559600984424
sg14
g37
sg15
F0.02097999111302572
sg16
g5
sg17
g5
sg18
g5
sg19
g5
sg20
g5
sg21
g5
sg22
g5
sg23
I1030329
sg24
g5
sg25
g5
sg26
g37
sg27
g37
sg28
g5
sg29
g5
sg30
I87410
sg31
F0.0008440534445641467
sg32
I1030329
sg33
g37
sg34
g37
ssS'WALLS JR ROBERT H'
p93
(dp94
g3
I671
sg4
g5
sg6
F0.10625
sg7
I50936
sg8
I00
sg9
g5
sg10
S'rob.walls@enron.com'
p95
sg12
I540751
sg13
F0.22265838444153993
sg14
F0.0
sg15
F0.12011785035242664
sg16
g5
sg17
I215
sg18
g5
sg19
I146
sg20
I2
sg21
g5
sg22
I850000
sg23
I5898997
sg24
I17
sg25
I0
sg26
F0.0
sg27
F0.02533532041728763
sg28
I1552453
sg29
I357091
sg30
I1798780
sg31
F0.017369482382028324
sg32
I4346544
sg33
F0.3213394189288176
sg34
F0.3204172876304024
ssS'KITCHEN LOUISE'
p96
(dp97
g3
I8305
sg4
g5
sg6
F0.3875
sg7
I5774
sg8
I00
sg9
g5
sg10
S'louise.kitchen@enron.com'
p98
sg12
g5
sg13
F0.02524009564483767
sg14
F0.0033930641960443282
sg15
F0.011141155182038195
sg16
g5
sg17
I3669
sg18
g5
sg19
I1728
sg20
I93925
sg21
g5
sg22
I3100000
sg23
I547143
sg24
I251
sg25
I194
sg26
F0.11226851851851852
sg27
F0.030222757375075255
sg28
I466101
sg29
I271442
sg30
I3471141
sg31
F0.03351823038116733
sg32
I81042
sg33
F0.2442655080998292
sg34
F0.441782059000602
ssS'CHAN RONNIE'
p99
(dp100
g3
g5
sg4
g5
sg6
g37
sg7
g5
sg8
I00
sg9
I-98784
sg10
g5
sg12
g5
sg13
g37
sg14
g37
sg15
g37
sg16
I-32460
sg17
g5
sg18
g5
sg19
g5
sg20
g5
sg21
I98784
sg22
g5
sg23
g5
sg24
g5
sg25
g5
sg26
g37
sg27
g37
sg28
I32460
sg29
g5
sg30
g5
sg31
g37
sg32
g5
sg33
g37
sg34
g37
ssS'BELFER ROBERT'
p101
(dp102
g3
g5
sg4
I-102500
sg6
g37
sg7
g5
sg8
I00
sg9
g5
sg10
g5
sg12
g5
sg13
g37
sg14
g37
sg15
F-0.0008978401541125632
sg16
I44093
sg17
g5
sg18
g5
sg19
g5
sg20
g5
sg21
I3285
sg22
g5
sg23
I-44093
sg24
g5
sg25
g5
sg26
g37
sg27
g37
sg28
g5
sg29
g5
sg30
I102500
sg31
F0.0009897663661803573
sg32
I3285
sg33
g37
sg34
g37
ssS'SHANKMAN JEFFREY A'
p103
(dp104
g3
I3221
sg4
g5
sg6
F0.25
sg7
I178979
sg8
I00
sg9
g5
sg10
S'jeffrey.shankman@enron.com'
p105
sg12
I554422
sg13
F0.782377394945861
sg14
F0.0009034797170424738
sg15
F0.0421916454704063
sg16
g5
sg17
I1730
sg18
g5
sg19
I2681
sg20
I1191
sg21
g5
sg22
I2000000
sg23
I2072035
sg24
I94
sg25
I83
sg26
F0.030958597538232
sg27
F0.029183483390251473
sg28
I630137
sg29
I304110
sg30
I3038702
sg31
F0.029342488160438867
sg32
I1441898
sg33
F0.2736628217749614
sg34
F0.5371002794163303
ssS'WODRASKA JOHN'
p106
(dp107
g3
g5
sg4
g5
sg6
g37
sg7
g5
sg8
I00
sg9
g5
sg10
S'john.wodraska@enron.com'
p108
sg12
g5
sg13
g37
sg14
g37
sg15
g37
sg16
g5
sg17
g5
sg18
g5
sg19
g5
sg20
I189583
sg21
g5
sg22
g5
sg23
g5
sg24
g5
sg25
g5
sg26
g37
sg27
g37
sg28
g5
sg29
g5
sg30
I189583
sg31
F0.0018306622146299577
sg32
g5
sg33
g37
sg34
g37
ssS'BERGSIEKER RICHARD P'
p109
(dp110
g3
I383
sg4
g5
sg6
F0.03125
sg7
I59175
sg8
I00
sg9
I-485813
sg10
S'rick.bergsieker@enron.com'
p111
sg12
I180250
sg13
F0.25867382400125893
sg14
F0.0
sg15
F0.013423904559874656
sg16
g5
sg17
I233
sg18
g5
sg19
I59
sg20
I427316
sg21
g5
sg22
I250000
sg23
I659249
sg24
I4
sg25
I0
sg26
F0.0
sg27
F0.010443864229765013
sg28
I659249
sg29
I187922
sg30
I618850
sg31
F0.005975774787421601
sg32
g5
sg33
F0.16910744399590374
sg34
F0.608355091383812
ssS'URQUHART JOHN A'
p112
(dp113
g3
g5
sg4
g5
sg6
g37
sg7
I228656
sg8
I00
sg9
I-36666
sg10
g5
sg12
g5
sg13
F0.9995322670187049
sg14
g37
sg15
g37
sg16
g5
sg17
g5
sg18
g5
sg19
g5
sg20
g5
sg21
I36666
sg22
g5
sg23
g5
sg24
g5
sg25
g5
sg26
g37
sg27
g37
sg28
g5
sg29
g5
sg30
I228656
sg31
F0.00220796115341791
sg32
g5
sg33
g37
sg34
g37
ssS'BIBI PHILIPPE A'
p114
(dp115
g3
I1607
sg4
g5
sg6
F0.125
sg7
I38559
sg8
I00
sg9
g5
sg10
S'philippe.bibi@enron.com'
p116
sg12
I369721
sg13
F0.1685543553808964
sg14
F0.002862476664592408
sg15
F0.03754455450060576
sg16
g5
sg17
I1336
sg18
g5
sg19
I40
sg20
I425688
sg21
g5
sg22
I1000000
sg23
I1843816
sg24
I23
sg25
I8
sg26
F0.2
sg27
F0.01431238332296204
sg28
I378082
sg29
I213625
sg30
I2047593
sg31
F0.01977208471245206
sg32
I1465734
sg33
F0.1922370862571968
sg34
F0.8313627878033603
ssS'RIEKER PAULA H'
p117
(dp118
g3
I1328
sg4
I214678
sg6
F0.0875
sg7
I33271
sg8
I01
sg9
I-100000
sg10
S'paula.rieker@enron.com'
p119
sg12
g5
sg13
F0.1454387291651185
sg14
F0.015427563914193358
sg15
F0.03907318167973588
sg16
g5
sg17
I1258
sg18
g5
sg19
I82
sg20
I1950
sg21
g5
sg22
I700000
sg23
I1918887
sg24
I35
sg25
I48
sg26
F0.5853658536585366
sg27
F0.02635542168674699
sg28
I283649
sg29
I249201
sg30
I1099100
sg31
F0.010613192322622738
sg32
I1635238
sg33
F0.2242512539842233
sg34
F0.947289156626506
ssS'WHALEY DAVID A'
p120
(dp121
g3
g5
sg4
g5
sg6
g37
sg7
g5
sg8
I00
sg9
g5
sg10
g5
sg12
g5
sg13
g37
sg14
g37
sg15
F0.0020101373082730594
sg16
g5
sg17
g5
sg18
g5
sg19
g5
sg20
g5
sg21
g5
sg22
g5
sg23
I98718
sg24
g5
sg25
g5
sg26
g37
sg27
g37
sg28
g5
sg29
g5
sg30
g5
sg31
g37
sg32
I98718
sg33
g37
sg34
g37
ssS'BECK SALLY W'
p122
(dp123
g3
I7315
sg4
g5
sg6
F0.0875
sg7
I37172
sg8
I00
sg9
g5
sg10
S'sally.beck@enron.com'
p124
sg12
g5
sg13
F0.16249131196915584
sg14
F0.0017496276642876738
sg15
F0.002566214616885764
sg16
g5
sg17
I2639
sg18
g5
sg19
I4343
sg20
I566
sg21
g5
sg22
I700000
sg23
I126027
sg24
I144
sg25
I386
sg26
F0.08887865530739121
sg27
F0.01968557758031442
sg28
I126027
sg29
I231330
sg30
I969068
sg31
F0.009357569882357721
sg32
g5
sg33
F0.2081694799947447
sg34
F0.36076555023923446
ssS'HAUG DAVID L'
p125
(dp126
g3
I573
sg4
g5
sg6
g37
sg7
I475
sg8
I00
sg9
g5
sg10
S'david.haug@enron.com'
p127
sg12
g5
sg13
F0.0020763847300481284
sg14
F0.0025718747129604112
sg15
F0.04514957194733024
sg16
g5
sg17
I471
sg18
g5
sg19
I19
sg20
g5
sg21
g5
sg22
g5
sg23
I2217299
sg24
I4
sg25
I7
sg26
F0.3684210526315789
sg27
F0.006980802792321117
sg28
I2217299
sg29
g5
sg30
I475
sg31
F4.586722184738241e-06
sg32
g5
sg33
g37
sg34
F0.8219895287958116
ssS'ECHOLS JOHN B'
p128
(dp129
g3
g5
sg4
g5
sg6
F0.025
sg7
I21530
sg8
I00
sg9
g5
sg10
S'john.echols@enron.com'
p130
sg12
I2234774
sg13
F0.09411486997460254
sg14
g37
sg15
F0.02054447968907726
sg16
g5
sg17
g5
sg18
g5
sg19
g5
sg20
I53775
sg21
g5
sg22
I200000
sg23
I1008941
sg24
g5
sg25
g5
sg26
g37
sg27
g37
sg28
I407503
sg29
I182245
sg30
I2692324
sg31
F0.025997773093269894
sg32
I601438
sg33
F0.16399881935608113
sg34
g37
ssS'MENDELSOHN JOHN'
p131
(dp132
g3
g5
sg4
g5
sg6
g37
sg7
I148
sg8
I00
sg9
I-103750
sg10
g5
sg12
g5
sg13
F0.0006469577685202589
sg14
g37
sg15
g37
sg16
g5
sg17
g5
sg18
g5
sg19
g5
sg20
g5
sg21
I103750
sg22
g5
sg23
g5
sg24
g5
sg25
g5
sg26
g37
sg27
g37
sg28
g5
sg29
g5
sg30
I148
sg31
F1.4291260701921256e-06
sg32
g5
sg33
g37
sg34
g37
ssS'HICKERSON GARY J'
p133
(dp134
g3
I1320
sg4
g5
sg6
F0.2125
sg7
I98849
sg8
I00
sg9
g5
sg10
S'gary.hickerson@enron.com'
p135
sg12
I69223
sg13
F0.4321022193274262
sg14
F0.0011223344556677889
sg15
F0.008981781702729123
sg16
g5
sg17
I900
sg18
g5
sg19
I27
sg20
I1936
sg21
g5
sg22
I1700000
sg23
I441096
sg24
I40
sg25
I1
sg26
F0.037037037037037035
sg27
F0.030303030303030304
sg28
I441096
sg29
I211788
sg30
I2081796
sg31
F0.020102357678524908
sg32
g5
sg33
F0.19058400479456616
sg34
F0.6818181818181818
ssS'CLINE KENNETH W'
p136
(dp137
g3
g5
sg4
g5
sg6
g37
sg7
g5
sg8
I00
sg9
g5
sg10
g5
sg12
g5
sg13
g37
sg14
g37
sg15
F0.0038590449805435047
sg16
I-472568
sg17
g5
sg18
g5
sg19
g5
sg20
g5
sg21
g5
sg22
g5
sg23
I189518
sg24
g5
sg25
g5
sg26
g37
sg27
g37
sg28
I662086
sg29
g5
sg30
g5
sg31
g37
sg32
g5
sg33
g37
sg34
g37
ssS'LEWIS RICHARD'
p138
(dp139
g3
I952
sg4
g5
sg6
g37
sg7
g5
sg8
I00
sg9
g5
sg10
S'richard.lewis@enron.com'
p140
sg12
g5
sg13
g37
sg14
F0.0
sg15
F0.017317769277417967
sg16
g5
sg17
I739
sg18
g5
sg19
I26
sg20
g5
sg21
g5
sg22
g5
sg23
I850477
sg24
I10
sg25
I0
sg26
F0.0
sg27
F0.01050420168067227
sg28
g5
sg29
g5
sg30
g5
sg31
g37
sg32
I850477
sg33
g37
sg34
F0.7762605042016807
ssS'HAYES ROBERT E'
p141
(dp142
g3
I504
sg4
I7961
sg6
g37
sg7
g5
sg8
I00
sg9
g5
sg10
S'robert.hayes@enron.com'
p143
sg12
g5
sg13
g37
sg14
F0.0
sg15
F0.0030832368052846506
sg16
g5
sg17
I50
sg18
g5
sg19
I12
sg20
g5
sg21
g5
sg22
g5
sg23
I151418
sg24
I16
sg25
I0
sg26
F0.0
sg27
F0.031746031746031744
sg28
I151418
sg29
g5
sg30
I7961
sg31
F7.687346381621292e-05
sg32
g5
sg33
g37
sg34
F0.0992063492063492
ssS'MCCARTY DANNY J'
p144
(dp145
g3
I1433
sg4
g5
sg6
g37
sg7
g5
sg8
I00
sg9
g5
sg10
S'danny.mccarty@enron.com'
p146
sg12
g5
sg13
g37
sg14
F0.00016228760609552248
sg15
F0.015453671240351114
sg16
g5
sg17
I508
sg18
g5
sg19
I215
sg20
g5
sg21
g5
sg22
g5
sg23
I758931
sg24
I25
sg25
I2
sg26
F0.009302325581395349
sg27
F0.017445917655268667
sg28
I94556
sg29
g5
sg30
g5
sg31
g37
sg32
I664375
sg33
g37
sg34
F0.35450104675505933
ssS'KOPPER MICHAEL J'
p147
(dp148
g3
g5
sg4
g5
sg6
F0.1
sg7
I118134
sg8
I01
sg9
g5
sg10
S'michael.kopper@enron.com'
p149
sg12
I602671
sg13
F0.5164034393673802
sg14
g37
sg15
F0.020057634606078206
sg16
g5
sg17
g5
sg18
g5
sg19
g5
sg20
I907502
sg21
g5
sg22
I800000
sg23
I985032
sg24
g5
sg25
g5
sg26
g37
sg27
g37
sg28
I985032
sg29
I224305
sg30
I2652612
sg31
F0.025614303806111315
sg32
g5
sg33
F0.20184781571876198
sg34
g37
ssS'LEFF DANIEL P'
p150
(dp151
g3
I2822
sg4
g5
sg6
F0.125
sg7
g5
sg8
I00
sg9
g5
sg10
S'dan.leff@enron.com'
p152
sg12
I1387399
sg13
g37
sg14
F0.005276005984723207
sg15
F0.0073412223047171704
sg16
g5
sg17
I2672
sg18
g5
sg19
I63
sg20
I3083
sg21
g5
sg22
I1000000
sg23
I360528
sg24
I67
sg25
I14
sg26
F0.2222222222222222
sg27
F0.02374202693125443
sg28
I360528
sg29
I273746
sg30
I2664228
sg31
F0.025726470890106934
sg32
g5
sg33
F0.2463388340061444
sg34
F0.9468462083628633
ssS'LAVORATO JOHN J'
p153
(dp154
g3
I7259
sg4
g5
sg6
F1.0
sg7
I49537
sg8
I00
sg9
g5
sg10
S'john.lavorato@enron.com'
p155
sg12
I2035380
sg13
F0.21654288499451396
sg14
F0.011564807297177678
sg15
F0.10521555270183036
sg16
g5
sg17
I3962
sg18
g5
sg19
I2585
sg20
I1552
sg21
g5
sg22
I8000000
sg23
I5167144
sg24
I528
sg25
I411
sg26
F0.15899419729206962
sg27
F0.07273729163796666
sg28
I1008149
sg29
I339288
sg30
I10425757
sg31
F0.10067379142018949
sg32
I4158995
sg33
F0.30531883684976846
sg34
F0.5458052073288332
ssS'BERBERIAN DAVID'
p156
(dp157
g3
g5
sg4
g5
sg6
g37
sg7
I11892
sg8
I00
sg9
g5
sg10
S'david.berberian@enron.com'
p158
sg12
g5
sg13
F0.05198393096785756
sg14
g37
sg15
F0.050776054560532365
sg16
g5
sg17
g5
sg18
g5
sg19
g5
sg20
g5
sg21
g5
sg22
g5
sg23
I2493616
sg24
g5
sg25
g5
sg26
g37
sg27
g37
sg28
I869220
sg29
I216582
sg30
I228474
sg31
F0.002206203714601863
sg32
I1624396
sg33
F0.19489803447984178
sg34
g37
ssS'DETMERING TIMOTHY J'
p159
(dp160
g3
g5
sg4
I875307
sg6
F0.053125
sg7
I52255
sg8
I00
sg9
I-775241
sg10
S'timothy.detmering@enron.com'
p161
sg12
I415657
sg13
F0.22842417698666306
sg14
g37
sg15
F0.04129223741000778
sg16
I-315068
sg17
g5
sg18
g5
sg19
g5
sg20
I1105
sg21
g5
sg22
I425000
sg23
I2027865
sg24
g5
sg25
g5
sg26
g37
sg27
g37
sg28
I315068
sg29
I210500
sg30
I1204583
sg31
F0.011631763304123252
sg32
I2027865
sg33
F0.18942495802054968
sg34
g37
ssS'WAKEHAM JOHN'
p162
(dp163
g3
g5
sg4
g5
sg6
g37
sg7
I103773
sg8
I00
sg9
g5
sg10
g5
sg12
g5
sg13
F0.4536266791395462
sg14
g37
sg15
g37
sg16
g5
sg17
g5
sg18
g5
sg19
g5
sg20
g5
sg21
I109298
sg22
g5
sg23
g5
sg24
g5
sg25
g5
sg26
g37
sg27
g37
sg28
g5
sg29
g5
sg30
I213071
sg31
F0.0020574683844723405
sg32
g5
sg33
g37
sg34
g37
ssS'POWERS WILLIAM'
p164
(dp165
g3
I653
sg4
g5
sg6
g37
sg7
g5
sg8
I00
sg9
I-17500
sg10
S'ken.powers@enron.com'
p166
sg12
g5
sg13
g37
sg14
F0.0
sg15
g37
sg16
g5
sg17
I12
sg18
g5
sg19
I26
sg20
g5
sg21
I17500
sg22
g5
sg23
g5
sg24
I0
sg25
I0
sg26
F0.0
sg27
F0.0
sg28
g5
sg29
g5
sg30
g5
sg31
g37
sg32
g5
sg33
g37
sg34
F0.018376722817764167
ssS'GOLD JOSEPH'
p167
(dp168
g3
g5
sg4
g5
sg6
F0.09375
sg7
g5
sg8
I00
sg9
g5
sg10
S'joe.gold@enron.com'
p169
sg12
I304805
sg13
g37
sg14
g37
sg15
F0.0178702831626535
sg16
g5
sg17
g5
sg18
g5
sg19
g5
sg20
I819288
sg21
g5
sg22
I750000
sg23
I877611
sg24
g5
sg25
g5
sg26
g37
sg27
g37
sg28
I441096
sg29
I272880
sg30
I2146973
sg31
F0.020731723556071613
sg32
I436515
sg33
F0.24555953702920474
sg34
g37
ssS'BANNANTINE JAMES M'
p170
(dp171
g3
I566
sg4
g5
sg6
g37
sg7
I56301
sg8
I00
sg9
I-5104
sg10
S'james.bannantine@enron.com'
p172
sg12
g5
sg13
F0.24611060355039932
sg14
F0.0
sg15
F0.10677008087830771
sg16
I-560222
sg17
I465
sg18
g5
sg19
I29
sg20
I864523
sg21
g5
sg22
g5
sg23
I5243487
sg24
I39
sg25
I0
sg26
F0.0
sg27
F0.06890459363957598
sg28
I1757552
sg29
I477
sg30
I916197
sg31
F0.008847033906296048
sg32
I4046157
sg33
F0.0004292432540418157
sg34
F0.8215547703180212
ssS'DUNCAN JOHN H'
p173
(dp174
g3
g5
sg4
g5
sg6
g37
sg7
g5
sg8
I00
sg9
I-25000
sg10
g5
sg12
g5
sg13
g37
sg14
g37
sg15
F0.007569729374080815
sg16
g5
sg17
g5
sg18
g5
sg19
g5
sg20
g5
sg21
I102492
sg22
g5
sg23
I371750
sg24
g5
sg25
g5
sg26
g37
sg27
g37
sg28
g5
sg29
g5
sg30
I77492
sg31
F0.0007482826853468121
sg32
I371750
sg33
g37
sg34
g37
ssS'SHAPIRO RICHARD S'
p175
(dp176
g3
I15149
sg4
g5
sg6
F0.08125
sg7
I137767
sg8
I00
sg9
g5
sg10
S'richard.shapiro@enron.com'
p177
sg12
g5
sg13
F0.6022258844306116
sg14
F0.00026132733095422236
sg15
F0.02009772820967623
sg16
g5
sg17
I4527
sg18
g5
sg19
I1215
sg20
I705
sg21
g5
sg22
I650000
sg23
I987001
sg24
I74
sg25
I65
sg26
F0.053497942386831275
sg27
F0.0048848108786058485
sg28
I379164
sg29
I269076
sg30
I1057548
sg31
F0.010211955522159068
sg32
I607837
sg33
F0.24213638956929895
sg34
F0.29883160604660375
ssS'SHERRIFF JOHN R'
p178
(dp179
g3
I3187
sg4
g5
sg6
F0.1875
sg7
g5
sg8
I00
sg9
g5
sg10
S'john.sherriff@enron.com'
p180
sg12
I554422
sg13
g37
sg14
F0.0021964229683087543
sg15
F0.06371364346030972
sg16
g5
sg17
I2103
sg18
g5
sg19
I92
sg20
I1852186
sg21
g5
sg22
I1500000
sg23
I3128982
sg24
I28
sg25
I23
sg26
F0.25
sg27
F0.008785691873235017
sg28
I1293424
sg29
I428780
sg30
I4335388
sg31
F0.04186362172431148
sg32
I1835558
sg33
F0.385850990499056
sg34
F0.6598682146219015
ssS'SHELBY REX'
p181
(dp182
g3
I225
sg4
g5
sg6
F0.025
sg7
I22884
sg8
I01
sg9
I-4167
sg10
S'rex.shelby@enron.com'
p183
sg12
g5
sg13
F0.10003365928930814
sg14
F0.02074074074074074
sg15
F0.050776054560532365
sg16
g5
sg17
I91
sg18
g5
sg19
I39
sg20
I1573324
sg21
g5
sg22
I200000
sg23
I2493616
sg24
I13
sg25
I14
sg26
F0.358974358974359
sg27
F0.057777777777777775
sg28
I869220
sg29
I211844
sg30
I2003885
sg31
F0.019350029021398294
sg32
I1624396
sg33
F0.19063439813256688
sg34
F0.40444444444444444
ssS'LEMAISTRE CHARLES'
p184
(dp185
g3
g5
sg4
g5
sg6
g37
sg7
g5
sg8
I00
sg9
I-25000
sg10
g5
sg12
g5
sg13
g37
sg14
g37
sg15
F0.008407194954974415
sg16
g5
sg17
g5
sg18
g5
sg19
g5
sg20
g5
sg21
I112492
sg22
g5
sg23
I412878
sg24
g5
sg25
g5
sg26
g37
sg27
g37
sg28
g5
sg29
g5
sg30
I87492
sg31
F0.0008448452576570909
sg32
I412878
sg33
g37
sg34
g37
ssS'DEFFNER JOSEPH M'
p186
(dp187
g3
I714
sg4
g5
sg6
F0.075
sg7
I41626
sg8
I00
sg9
g5
sg10
S'joseph.deffner@enron.com'
p188
sg12
I335349
sg13
F0.18196124373259662
sg14
F0.008706185176773414
sg15
F0.0032419211388749983
sg16
g5
sg17
I552
sg18
g5
sg19
I74
sg20
I25553
sg21
g5
sg22
I600000
sg23
I159211
sg24
I115
sg25
I4
sg26
F0.05405405405405406
sg27
F0.16106442577030813
sg28
I141833
sg29
I206121
sg30
I1208649
sg31
F0.01167102564602461
sg32
I17378
sg33
F0.1854843789651008
sg34
F0.773109243697479
ssS'KISHKILL JOSEPH G'
p189
(dp190
g3
g5
sg4
g5
sg6
g37
sg7
I116335
sg8
I00
sg9
I-51042
sg10
S'joe.kishkill@enron.com'
p191
sg12
g5
sg13
F0.5085394054108401
sg14
g37
sg15
F0.02106178695134632
sg16
g5
sg17
g5
sg18
g5
sg19
g5
sg20
I465357
sg21
g5
sg22
g5
sg23
I1034346
sg24
g5
sg25
g5
sg26
g37
sg27
g37
sg28
I1034346
sg29
I174246
sg30
I704896
sg31
F0.006806657097122626
sg32
g5
sg33
F0.15680067095130024
sg34
g37
ssS'WHALLEY LAWRENCE G'
p192
(dp193
g3
I6019
sg4
g5
sg6
F0.375
sg7
I57838
sg8
I00
sg9
g5
sg10
S'greg.whalley@enron.com'
p194
sg12
I808346
sg13
F0.25282934740320767
sg14
F0.0013339054624384892
sg15
F0.12378593656479227
sg16
g5
sg17
I3920
sg18
g5
sg19
I556
sg20
I301026
sg21
g5
sg22
I3000000
sg23
I6079137
sg24
I186
sg25
I24
sg26
F0.04316546762589928
sg27
F0.03090214321315833
sg28
I2796177
sg29
I510364
sg30
I4677574
sg31
F0.04516785776116799
sg32
I3282960
sg33
F0.45926688491781387
sg34
F0.6512709752450573
ssS'MCCONNELL MICHAEL S'
p195
(dp196
g3
I3329
sg4
g5
sg6
F0.1375
sg7
I81364
sg8
I00
sg9
g5
sg10
S'mike.mcconnell@enron.com'
p197
sg12
I554422
sg13
F0.3556694045802862
sg14
F0.001955277089976269
sg15
F0.06314954335849354
sg16
g5
sg17
I2189
sg18
g5
sg19
I2742
sg20
I540
sg21
g5
sg22
I1100000
sg23
I3101279
sg24
I92
sg25
I194
sg26
F0.07075127644055434
sg27
F0.02763592670471613
sg28
I1478269
sg29
I365038
sg30
I2101364
sg31
F0.02029131132002166
sg32
I1623010
sg33
F0.3284907735197407
sg34
F0.657554821267648
ssS'PIRO JIM'
p198
(dp199
g3
I58
sg4
g5
sg6
g37
sg7
g5
sg8
I00
sg9
g5
sg10
S'jim.piro@enron.com'
p200
sg12
g5
sg13
g37
sg14
F0.0
sg15
F0.0009632238824788671
sg16
g5
sg17
I3
sg18
g5
sg19
I16
sg20
g5
sg21
g5
sg22
g5
sg23
I47304
sg24
I0
sg25
I1
sg26
F0.0625
sg27
F0.0
sg28
I47304
sg29
g5
sg30
g5
sg31
g37
sg32
g5
sg33
g37
sg34
F0.05172413793103448
ssS'DELAINEY DAVID W'
p201
(dp202
g3
I3093
sg4
g5
sg6
F0.375
sg7
I86174
sg8
I01
sg9
g5
sg10
S'david.delainey@enron.com'
p203
sg12
I1294981
sg13
F0.3766955320571946
sg14
F0.004234327253006267
sg15
F0.07359509793488823
sg16
g5
sg17
I2097
sg18
g5
sg19
I3069
sg20
I1661
sg21
g5
sg22
I3000000
sg23
I3614261
sg24
I66
sg25
I609
sg26
F0.198435972629521
sg27
F0.02133850630455868
sg28
I1323148
sg29
I365163
sg30
I4747979
sg31
F0.0458477065515185
sg32
I2291113
sg33
F0.3286032586492066
sg34
F0.6779825412221144
ssS'SULLIVAN-SHAKLOVITZ COLLEEN'
p204
(dp205
g3
g5
sg4
I181993
sg6
F0.0125
sg7
g5
sg8
I00
sg9
g5
sg10
g5
sg12
I554422
sg13
g37
sg14
g37
sg15
F0.027741250991293476
sg16
g5
sg17
g5
sg18
g5
sg19
g5
sg20
I162
sg21
g5
sg22
I100000
sg23
I1362375
sg24
g5
sg25
g5
sg26
g37
sg27
g37
sg28
g5
sg29
I162779
sg30
I999356
sg31
F0.009650038601371093
sg32
I1362375
sg33
F0.14648173511461784
sg34
g37
ssS'WROBEL BRUCE'
p206
(dp207
g3
g5
sg4
g5
sg6
g37
sg7
g5
sg8
I00
sg9
g5
sg10
g5
sg12
g5
sg13
g37
sg14
g37
sg15
F0.0028330233969491967
sg16
g5
sg17
g5
sg18
g5
sg19
g5
sg20
g5
sg21
g5
sg22
g5
sg23
I139130
sg24
g5
sg25
g5
sg26
g37
sg27
g37
sg28
g5
sg29
g5
sg30
g5
sg31
g37
sg32
I139130
sg33
g37
sg34
g37
ssS'LINDHOLM TOD A'
p208
(dp209
g3
g5
sg4
I204075
sg6
F0.025
sg7
I57727
sg8
I00
sg9
g5
sg10
S'tod.lindholm@enron.com'
p210
sg12
I175000
sg13
F0.25234412907681747
sg14
g37
sg15
F0.06239468811269247
sg16
g5
sg17
g5
sg18
g5
sg19
g5
sg20
I2630
sg21
g5
sg22
I200000
sg23
I3064208
sg24
g5
sg25
g5
sg26
g37
sg27
g37
sg28
I514847
sg29
I236457
sg30
I875889
sg31
F0.008457809489827776
sg32
I2549361
sg33
F0.21278317006491743
sg34
g37
ssS'MEYER JEROME J'
p211
(dp212
g3
g5
sg4
g5
sg6
g37
sg7
I2151
sg8
I00
sg9
I-38346
sg10
g5
sg12
g5
sg13
F0.009402744324912683
sg14
g37
sg15
g37
sg16
g5
sg17
g5
sg18
g5
sg19
g5
sg20
g5
sg21
I38346
sg22
g5
sg23
g5
sg24
g5
sg25
g5
sg26
g37
sg27
g37
sg28
g5
sg29
g5
sg30
I2151
sg31
F2.077060930394096e-05
sg32
g5
sg33
g37
sg34
g37
ssS'LAY KENNETH L'
p213
(dp214
g3
I4273
sg4
I202911
sg6
F0.875
sg7
I99832
sg8
I01
sg9
I-300000
sg10
S'kenneth.lay@enron.com'
p215
sg12
I3600000
sg13
F0.4363992428845574
sg14
F0.012793509634136828
sg15
F1.0
sg16
g5
sg17
I2411
sg18
I81525000
sg19
I36
sg20
I10359729
sg21
g5
sg22
I7000000
sg23
I49110078
sg24
I123
sg25
I16
sg26
F0.4444444444444444
sg27
F0.028785396676807865
sg28
I14761694
sg29
I1072321
sg30
I103559793
sg31
F1.0
sg32
I34348384
sg33
F0.9649613321118948
sg34
F0.5642405803884858
ssS'BUTTS ROBERT H'
p216
(dp217
g3
g5
sg4
g5
sg6
F0.09375
sg7
I9410
sg8
I00
sg9
I-75000
sg10
S'bob.butts@enron.com'
p218
sg12
I175000
sg13
F0.04113427433632187
sg14
g37
sg15
F0.008503733184866863
sg16
g5
sg17
g5
sg18
g5
sg19
g5
sg20
I150656
sg21
g5
sg22
I750000
sg23
I417619
sg24
g5
sg25
g5
sg26
g37
sg27
g37
sg28
I417619
sg29
I261516
sg30
I1271582
sg31
F0.012278722882344889
sg32
g5
sg33
F0.23533328893920225
sg34
g37
ssS'OLSON CINDY K'
p219
(dp220
g3
I1184
sg4
I77716
sg6
F0.09375
sg7
I63791
sg8
I00
sg9
g5
sg10
S'cindy.olson@enron.com'
p221
sg12
I100000
sg13
F0.278851912241053
sg14
F0.004872661122661123
sg15
F0.05308000121685818
sg16
g5
sg17
I856
sg18
g5
sg19
I52
sg20
I972
sg21
g5
sg22
I750000
sg23
I2606763
sg24
I20
sg25
I15
sg26
F0.28846153846153844
sg27
F0.016891891891891893
sg28
I969729
sg29
I329078
sg30
I1321557
sg31
F0.012761294337465506
sg32
I1637034
sg33
F0.296131051474995
sg34
F0.722972972972973
ssS'MCDONALD REBECCA'
p222
(dp223
g3
I894
sg4
g5
sg6
g37
sg7
g5
sg8
I00
sg9
g5
sg10
S'rebecca.mcdonald@enron.com'
p224
sg12
g5
sg13
g37
sg14
F0.004646360351058338
sg15
F0.03444030367860544
sg16
g5
sg17
I720
sg18
g5
sg19
I13
sg20
g5
sg21
g5
sg22
g5
sg23
I1691366
sg24
I54
sg25
I1
sg26
F0.07692307692307693
sg27
F0.06040268456375839
sg28
I934065
sg29
g5
sg30
g5
sg31
g37
sg32
I757301
sg33
g37
sg34
F0.8053691275167785
ssS'CUMBERLAND MICHAEL S'
p225
(dp226
g3
g5
sg4
g5
sg6
F0.040625
sg7
I22344
sg8
I00
sg9
g5
sg10
g5
sg12
I275000
sg13
F0.09767313770146396
sg14
g37
sg15
F0.004234161468853704
sg16
g5
sg17
g5
sg18
g5
sg19
g5
sg20
I713
sg21
g5
sg22
I325000
sg23
I207940
sg24
g5
sg25
g5
sg26
g37
sg27
g37
sg28
I207940
sg29
I184899
sg30
I807956
sg31
F0.007801830967352359
sg32
g5
sg33
F0.16638710362490078
sg34
g37
ssS'GAHN ROBERT S'
p227
(dp228
g3
g5
sg4
I73122
sg6
F0.06373375
sg7
I50080
sg8
I00
sg9
I-1042
sg10
g5
sg12
g5
sg13
F0.21891652059117953
sg14
g37
sg15
F0.006487609325320151
sg16
g5
sg17
g5
sg18
g5
sg19
g5
sg20
I76547
sg21
g5
sg22
I509870
sg23
I318607
sg24
g5
sg25
g5
sg26
g37
sg27
g37
sg28
I235370
sg29
I192008
sg30
I900585
sg31
F0.00869628041840524
sg32
I83237
sg33
F0.17278435790788457
sg34
g37
ssS'MCCLELLAN GEORGE'
p229
(dp230
g3
I1744
sg4
g5
sg6
F0.1125
sg7
I228763
sg8
I00
sg9
I-125000
sg10
S'george.mcclellan@enron.com'
p231
sg12
g5
sg13
F1.0
sg14
F0.0
sg15
F0.019300743118347317
sg16
g5
sg17
I1469
sg18
g5
sg19
I49
sg20
I51587
sg21
g5
sg22
I900000
sg23
I947861
sg24
I52
sg25
I0
sg26
F0.0
sg27
F0.02981651376146789
sg28
I441096
sg29
I263413
sg30
I1318763
sg31
F0.012734314754762015
sg32
I506765
sg33
F0.2370403632639765
sg34
F0.8423165137614679
ssS'HERMANN ROBERT J'
p232
(dp233
g3
g5
sg4
g5
sg6
F0.0875
sg7
I48357
sg8
I00
sg9
I-280000
sg10
S'robert.hermann@enron.com'
p234
sg12
I150000
sg13
F0.21138470819144706
sg14
g37
sg15
F0.013604783930499968
sg16
g5
sg17
g5
sg18
g5
sg19
g5
sg20
I416441
sg21
g5
sg22
I700000
sg23
I668132
sg24
g5
sg25
g5
sg26
g37
sg27
g37
sg28
I480632
sg29
I262663
sg30
I1297461
sg31
F0.012528617163226658
sg32
I187500
sg33
F0.2363654524871812
sg34
g37
ssS'SCRIMSHAW MATTHEW'
p235
(dp236
g3
g5
sg4
g5
sg6
g37
sg7
g5
sg8
I00
sg9
g5
sg10
S'matthew.scrimshaw@enron.com'
p237
sg12
g5
sg13
g37
sg14
g37
sg15
F0.015466418114831746
sg16
g5
sg17
g5
sg18
g5
sg19
g5
sg20
g5
sg21
g5
sg22
g5
sg23
I759557
sg24
g5
sg25
g5
sg26
g37
sg27
g37
sg28
g5
sg29
g5
sg30
g5
sg31
g37
sg32
I759557
sg33
g37
sg34
g37
ssS'GATHMANN WILLIAM D'
p238
(dp239
g3
g5
sg4
g5
sg6
g37
sg7
g5
sg8
I00
sg9
g5
sg10
g5
sg12
g5
sg13
g37
sg14
g37
sg15
F0.03961223600581534
sg16
I-72419
sg17
g5
sg18
g5
sg19
g5
sg20
g5
sg21
g5
sg22
g5
sg23
I1945360
sg24
g5
sg25
g5
sg26
g37
sg27
g37
sg28
I264013
sg29
g5
sg30
g5
sg31
g37
sg32
I1753766
sg33
g37
sg34
g37
ssS'HAEDICKE MARK E'
p240
(dp241
g3
I4009
sg4
I2157527
sg6
F0.14375
sg7
I76169
sg8
I00
sg9
I-934484
sg10
S'mark.haedicke@enron.com'
p242
sg12
I983346
sg13
F0.3329603126379703
sg14
F0.0014110446240934713
sg15
F0.01635293676381455
sg16
I-329825
sg17
I1847
sg18
g5
sg19
I1941
sg20
I52382
sg21
g5
sg22
I1150000
sg23
I803094
sg24
I180
sg25
I61
sg26
F0.03142709943328181
sg27
F0.04489897730107259
sg28
I524169
sg29
I374125
sg30
I3859065
sg31
F0.03726412431125659
sg32
I608750
sg33
F0.3366679924913926
sg34
F0.4607133948615615
ssS'BOWEN JR RAYMOND M'
p243
(dp244
g3
I1858
sg4
g5
sg6
F0.16875
sg7
I65907
sg8
I01
sg9
I-833
sg10
S'raymond.bowen@enron.com'
p245
sg12
I974293
sg13
F0.28810165979638314
sg14
F0.04186102140892238
sg15
F0.005132449596190827
sg16
g5
sg17
I1593
sg18
g5
sg19
I27
sg20
I1621
sg21
g5
sg22
I1350000
sg23
I252055
sg24
I140
sg25
I15
sg26
F0.5555555555555556
sg27
F0.07534983853606028
sg28
I252055
sg29
I278601
sg30
I2669589
sg31
F0.025778238085122477
sg32
g5
sg33
F0.25070775643459936
sg34
F0.8573735199138859
ssS'GILLIS JOHN'
p246
(dp247
g3
g5
sg4
g5
sg6
g37
sg7
g5
sg8
I00
sg9
g5
sg10
g5
sg12
g5
sg13
g37
sg14
g37
sg15
F0.0017438579511113788
sg16
g5
sg17
g5
sg18
g5
sg19
g5
sg20
g5
sg21
g5
sg22
g5
sg23
I85641
sg24
g5
sg25
g5
sg26
g37
sg27
g37
sg28
I75838
sg29
g5
sg30
g5
sg31
g37
sg32
I9803
sg33
g37
sg34
g37
ssS'FITZGERALD JAY L'
p248
(dp249
g3
I936
sg4
g5
sg6
F0.04375
sg7
I23870
sg8
I00
sg9
g5
sg10
S'jay.fitzgerald@enron.com'
p250
sg12
I556416
sg13
F0.10434379685526068
sg14
F0.0005341880341880342
sg15
F0.033012287213227395
sg16
g5
sg17
I723
sg18
g5
sg19
I16
sg20
I285414
sg21
g5
sg22
I350000
sg23
I1621236
sg24
I1
sg25
I8
sg26
F0.5
sg27
F0.0010683760683760685
sg28
I956775
sg29
I199157
sg30
I1414857
sg31
F0.013662223137120408
sg32
I664461
sg33
F0.17921760743229745
sg34
F0.7724358974358975
ssS'MORAN MICHAEL P'
p251
(dp252
g3
I672
sg4
g5
sg6
g37
sg7
g5
sg8
I00
sg9
g5
sg10
S'michael.moran@enron.com'
p253
sg12
g5
sg13
g37
sg14
F0.0
sg15
F0.004502965766008353
sg16
g5
sg17
I127
sg18
g5
sg19
I19
sg20
g5
sg21
g5
sg22
g5
sg23
I221141
sg24
I0
sg25
I0
sg26
F0.0
sg27
F0.0
sg28
I161602
sg29
g5
sg30
g5
sg31
g37
sg32
I59539
sg33
g37
sg34
F0.18898809523809523
ssS'REDMOND BRIAN L'
p254
(dp255
g3
I1671
sg4
g5
sg6
g37
sg7
I14689
sg8
I00
sg9
g5
sg10
S'brian.redmond@enron.com'
p256
sg12
g5
sg13
F0.0642105585256357
sg14
F0.027068084518712884
sg15
F0.16066608568611926
sg16
g5
sg17
I1063
sg18
g5
sg19
I221
sg20
g5
sg21
g5
sg22
g5
sg23
I7890324
sg24
I204
sg25
I49
sg26
F0.22171945701357465
sg27
F0.12208258527827648
sg28
I381285
sg29
I96840
sg30
I111529
sg31
F0.001076952712719308
sg32
I7509039
sg33
F0.08714447949981012
sg34
F0.6361460203470976
ssS'BAZELIDES PHILIP J'
p257
(dp258
g3
g5
sg4
I684694
sg6
g37
sg7
g5
sg8
I00
sg9
g5
sg10
g5
sg12
I93750
sg13
g37
sg14
g37
sg15
F0.03257256076848422
sg16
g5
sg17
g5
sg18
g5
sg19
g5
sg20
I874
sg21
g5
sg22
g5
sg23
I1599641
sg24
g5
sg25
g5
sg26
g37
sg27
g37
sg28
g5
sg29
I80818
sg30
I860136
sg31
F0.008305694469667392
sg32
I1599641
sg33
F0.0727265855453909
sg34
g37
ssS'BELDEN TIMOTHY N'
p259
(dp260
g3
I7991
sg4
I2144013
sg6
F0.656249875
sg7
I17355
sg8
I01
sg9
I-2334434
sg10
S'tim.belden@enron.com'
p261
sg12
g5
sg13
F0.07586454103154794
sg14
F0.006366666632192621
sg15
F0.02261664092653243
sg16
g5
sg17
I5521
sg18
g5
sg19
I484
sg20
I210698
sg21
g5
sg22
I5249999
sg23
I1110705
sg24
I228
sg25
I108
sg26
F0.2231404958677686
sg27
F0.028532098610937303
sg28
I157569
sg29
I213999
sg30
I5501630
sg31
F0.05312515446993989
sg32
I953136
sg33
F0.1925736417645587
sg34
F0.6909022650481792
ssS'DURAN WILLIAM D'
p262
(dp263
g3
I904
sg4
g5
sg6
F0.09375
sg7
I25785
sg8
I00
sg9
g5
sg10
S'w.duran@enron.com'
p264
sg12
I1105218
sg13
F0.11271490581955998
sg14
F0.0293141592920354
sg15
F0.03341289745049886
sg16
g5
sg17
I599
sg18
g5
sg19
I12
sg20
I1568
sg21
g5
sg22
I750000
sg23
I1640910
sg24
I106
sg25
I3
sg26
F0.25
sg27
F0.1172566371681416
sg28
I189041
sg29
I210692
sg30
I2093263
sg31
F0.020213085980193106
sg32
I1451869
sg33
F0.18959773517940928
sg34
F0.6626106194690266
ssS'THORN TERENCE H'
p265
(dp266
g3
I266
sg4
I16586
sg6
g37
sg7
I46145
sg8
I00
sg9
g5
sg10
S'terence.thorn@enron.com'
p267
sg12
I200000
sg13
F0.20171531235383344
sg14
F0.0
sg15
F0.09810198224486631
sg16
g5
sg17
I73
sg18
g5
sg19
I41
sg20
I426629
sg21
g5
sg22
g5
sg23
I4817796
sg24
I0
sg25
I0
sg26
F0.0
sg27
F0.0
sg28
I365320
sg29
I222093
sg30
I911453
sg31
F0.00880122462199205
sg32
I4452476
sg33
F0.1998572788677337
sg34
F0.2744360902255639
ssS'FASTOW ANDREW S'
p268
(dp269
g3
g5
sg4
g5
sg6
F0.1625
sg7
I55921
sg8
I01
sg9
I-1386055
sg10
S'andrew.fastow@enron.com'
p270
sg12
I1736055
sg13
F0.24444949576636082
sg14
g37
sg15
F0.03653856953760082
sg16
g5
sg17
g5
sg18
g5
sg19
g5
sg20
I277464
sg21
g5
sg22
I1300000
sg23
I1794412
sg24
g5
sg25
g5
sg26
g37
sg27
g37
sg28
I1794412
sg29
I440698
sg30
I2424083
sg31
F0.023407568997361745
sg32
g5
sg33
F0.3965757726828513
sg34
g37
ssS'FOY JOE'
p271
(dp272
g3
I57
sg4
I181755
sg6
g37
sg7
g5
sg8
I00
sg9
g5
sg10
S'tracy.foy@enron.com'
p273
sg12
g5
sg13
g37
sg14
F0.0
sg15
F0.006993147109234891
sg16
g5
sg17
I2
sg18
g5
sg19
I13
sg20
g5
sg21
g5
sg22
g5
sg23
I343434
sg24
I0
sg25
I0
sg26
F0.0
sg27
F0.0
sg28
g5
sg29
g5
sg30
I181755
sg31
F0.0017550730330254715
sg32
I343434
sg33
g37
sg34
F0.03508771929824561
ssS'CALGER CHRISTOPHER F'
p274
(dp275
g3
I2598
sg4
g5
sg6
F0.15625
sg7
I35818
sg8
I01
sg9
I-262500
sg10
S'christopher.calger@enron.com'
p276
sg12
I375304
sg13
F0.15657252265445024
sg14
F0.013298156701736378
sg15
F0.002566214616885764
sg16
g5
sg17
I2188
sg18
g5
sg19
I144
sg20
I486
sg21
g5
sg22
I1250000
sg23
I126027
sg24
I199
sg25
I25
sg26
F0.1736111111111111
sg27
F0.07659738260200154
sg28
I126027
sg29
I240189
sg30
I1639297
sg31
F0.015829473510052303
sg32
g5
sg33
F0.21614152609025086
sg34
F0.8421862971516552
ssS'RICE KENNETH D'
p277
(dp278
g3
I905
sg4
g5
sg6
F0.21875
sg7
I46950
sg8
I01
sg9
I-3504386
sg10
S'ken.rice@enron.com'
p279
sg12
I1617011
sg13
F0.2052342380542308
sg14
F0.010313075506445672
sg15
F0.459020631162508
sg16
g5
sg17
I864
sg18
g5
sg19
I18
sg20
I174839
sg21
g5
sg22
I1750000
sg23
I22542539
sg24
I42
sg25
I4
sg26
F0.2222222222222222
sg27
F0.04640883977900553
sg28
I2748364
sg29
I420636
sg30
I505050
sg31
F0.004876892714530629
sg32
I19794175
sg33
F0.3785223593440947
sg34
F0.9546961325966851
ssS'KAMINSKI WINCENTY J'
p280
(dp281
g3
I4607
sg4
g5
sg6
F0.05
sg7
I83585
sg8
I00
sg9
g5
sg10
S'vince.kaminski@enron.com'
p282
sg12
I323466
sg13
F0.36537814244436384
sg14
F0.00010591694250494188
sg15
F0.019874474644491505
sg16
g5
sg17
I583
sg18
g5
sg19
I14368
sg20
I4669
sg21
g5
sg22
I400000
sg23
I976037
sg24
I41
sg25
I171
sg26
F0.011901447661469933
sg27
F0.008899500759713479
sg28
I126027
sg29
I275101
sg30
I1086821
sg31
F0.010494623140082947
sg32
I850010
sg33
F0.24755817280955458
sg34
F0.1265465595832429
ssS'LOCKHART EUGENE E'
p283
(dp284
g3
g5
sg4
g5
sg6
g37
sg7
g5
sg8
I00
sg9
g5
sg10
g5
sg12
g5
sg13
g37
sg14
g37
sg15
g37
sg16
g5
sg17
g5
sg18
g5
sg19
g5
sg20
g5
sg21
g5
sg22
g5
sg23
g5
sg24
g5
sg25
g5
sg26
g37
sg27
g37
sg28
g5
sg29
g5
sg30
g5
sg31
g37
sg32
g5
sg33
g37
sg34
g37
ssS'COX DAVID'
p285
(dp286
g3
I102
sg4
g5
sg6
F0.1
sg7
I27861
sg8
I00
sg9
I-41250
sg10
S'chip.cox@enron.com'
p287
sg12
g5
sg13
F0.12178979992393875
sg14
F0.0
sg15
F0.010092286963991382
sg16
g5
sg17
I71
sg18
g5
sg19
I33
sg20
I494
sg21
g5
sg22
I800000
sg23
I495633
sg24
I0
sg25
I4
sg26
F0.12121212121212122
sg27
F0.0
sg28
I378082
sg29
I314288
sg30
I1101393
sg31
F0.010635334120453485
sg32
I117551
sg33
F0.28282181095659154
sg34
F0.696078431372549
ssS'OVERDYKE JR JERE C'
p288
(dp289
g3
g5
sg4
g5
sg6
g37
sg7
I18834
sg8
I00
sg9
g5
sg10
S'jere.overdyke@enron.com'
p290
sg12
I135836
sg13
F0.08232974738047674
sg14
g37
sg15
F0.14880029308851841
sg16
g5
sg17
g5
sg18
g5
sg19
g5
sg20
I176
sg21
g5
sg22
g5
sg23
I7307594
sg24
g5
sg25
g5
sg26
g37
sg27
g37
sg28
I2041016
sg29
I94941
sg30
I249787
sg31
F0.00241200752496676
sg32
I5266578
sg33
F0.08543560541296441
sg34
g37
ssS'PEREIRA PAULO V. FERRAZ'
p291
(dp292
g3
g5
sg4
g5
sg6
g37
sg7
I27942
sg8
I00
sg9
I-101250
sg10
g5
sg12
g5
sg13
F0.12214387816211537
sg14
g37
sg15
g37
sg16
g5
sg17
g5
sg18
g5
sg19
g5
sg20
g5
sg21
I101250
sg22
g5
sg23
g5
sg24
g5
sg25
g5
sg26
g37
sg27
g37
sg28
g5
sg29
g5
sg30
I27942
sg31
F0.0002698151395493809
sg32
g5
sg33
g37
sg34
g37
ssS'STABLER FRANK'
p293
(dp294
g3
g5
sg4
g5
sg6
F0.0625
sg7
I16514
sg8
I00
sg9
g5
sg10
S'frank.stabler@enron.com'
p295
sg12
g5
sg13
F0.0721882472252943
sg14
g37
sg15
F0.010420142277110616
sg16
g5
sg17
g5
sg18
g5
sg19
g5
sg20
I356071
sg21
g5
sg22
I500000
sg23
I511734
sg24
g5
sg25
g5
sg26
g37
sg27
g37
sg28
I511734
sg29
I239502
sg30
I1112087
sg31
F0.010738598135282097
sg32
g5
sg33
F0.21552330781870638
sg34
g37
ssS'SKILLING JEFFREY K'
p296
(dp297
g3
I3627
sg4
g5
sg6
F0.7
sg7
I29336
sg8
I01
sg9
g5
sg10
S'jeff.skilling@enron.com'
p298
sg12
I1920000
sg13
F0.1282375209277724
sg14
F0.006739576632049751
sg15
F0.5313302902919438
sg16
g5
sg17
I2042
sg18
g5
sg19
I108
sg20
I22122
sg21
g5
sg22
I5600000
sg23
I26093672
sg24
I88
sg25
I30
sg26
F0.2777777777777778
sg27
F0.0242624758753791
sg28
I6843672
sg29
I1111258
sg30
I8682716
sg31
F0.08384253915996144
sg32
I19250000
sg33
F1.0
sg34
F0.5629997242900469
ssS'BLAKE JR. NORMAN P'
p299
(dp300
g3
g5
sg4
g5
sg6
g37
sg7
I1279
sg8
I00
sg9
I-113784
sg10
g5
sg12
g5
sg13
F0.005590939094171697
sg14
g37
sg15
g37
sg16
g5
sg17
g5
sg18
g5
sg19
g5
sg20
g5
sg21
I113784
sg22
g5
sg23
g5
sg24
g5
sg25
g5
sg26
g37
sg27
g37
sg28
g5
sg29
g5
sg30
I1279
sg31
F1.2350352998484654e-05
sg32
g5
sg33
g37
sg34
g37
ssS'SHERRICK JEFFREY B'
p301
(dp302
g3
I613
sg4
g5
sg6
g37
sg7
g5
sg8
I00
sg9
g5
sg10
S'jeffrey.sherrick@enron.com'
p303
sg12
g5
sg13
g37
sg14
F0.045807504078303425
sg15
F0.037313481766410556
sg16
g5
sg17
I583
sg18
g5
sg19
I25
sg20
g5
sg21
g5
sg22
g5
sg23
I1832468
sg24
I39
sg25
I18
sg26
F0.72
sg27
F0.0636215334420881
sg28
I405999
sg29
g5
sg30
g5
sg31
g37
sg32
I1426469
sg33
g37
sg34
F0.9510603588907015
ssS'PRENTICE JAMES'
p304
(dp305
g3
g5
sg4
I564348
sg6
g37
sg7
g5
sg8
I00
sg9
g5
sg10
S'james.prentice@enron.com'
p306
sg12
g5
sg13
g37
sg14
g37
sg15
F0.022297663628227184
sg16
g5
sg17
g5
sg18
g5
sg19
g5
sg20
g5
sg21
g5
sg22
g5
sg23
I1095040
sg24
g5
sg25
g5
sg26
g37
sg27
g37
sg28
I208809
sg29
g5
sg30
I564348
sg31
F0.005449489455816119
sg32
I886231
sg33
g37
sg34
g37
ssS'GRAY RODNEY'
p307
(dp308
g3
g5
sg4
I93585
sg6
g37
sg7
g5
sg8
I00
sg9
g5
sg10
g5
sg12
I365625
sg13
g37
sg14
g37
sg15
g37
sg16
g5
sg17
g5
sg18
g5
sg19
g5
sg20
I680833
sg21
g5
sg22
g5
sg23
g5
sg24
g5
sg25
g5
sg26
g37
sg27
g37
sg28
g5
sg29
I6615
sg30
I1146658
sg31
F0.011072424604015961
sg32
g5
sg33
F0.005952713051334614
sg34
g37
ssS'PICKERING MARK R'
p309
(dp310
g3
I898
sg4
g5
sg6
F0.0375
sg7
I31653
sg8
I00
sg9
g5
sg10
S'mark.pickering@enron.com'
p311
sg12
g5
sg13
F0.1383659070741335
sg14
F0.0
sg15
F0.0005863969509476242
sg16
g5
sg17
I728
sg18
I400000
sg19
I67
sg20
g5
sg21
g5
sg22
I300000
sg23
I28798
sg24
I7
sg25
I0
sg26
F0.0
sg27
F0.0077951002227171495
sg28
g5
sg29
I655037
sg30
I1386690
sg31
F0.013390235339694046
sg32
I28798
sg33
F0.5894553739995573
sg34
F0.8106904231625836
ssS'THE TRAVEL AGENCY IN THE PARK'
p312
(dp313
g3
g5
sg4
g5
sg6
g37
sg7
g5
sg8
I00
sg9
g5
sg10
g5
sg12
g5
sg13
g37
sg14
g37
sg15
g37
sg16
g5
sg17
g5
sg18
g5
sg19
g5
sg20
I362096
sg21
g5
sg22
g5
sg23
g5
sg24
g5
sg25
g5
sg26
g37
sg27
g37
sg28
g5
sg29
g5
sg30
I362096
sg31
F0.0034964921183262697
sg32
g5
sg33
g37
sg34
g37
ssS'NOLES JAMES L'
p314
(dp315
g3
g5
sg4
I774401
sg6
g37
sg7
g5
sg8
I00
sg9
g5
sg10
g5
sg12
g5
sg13
g37
sg14
g37
sg15
F0.007507725807318001
sg16
I-94556
sg17
g5
sg18
g5
sg19
g5
sg20
g5
sg21
g5
sg22
g5
sg23
I368705
sg24
g5
sg25
g5
sg26
g37
sg27
g37
sg28
I463261
sg29
g5
sg30
I774401
sg31
F0.007477815255965218
sg32
g5
sg33
g37
sg34
g37
ssS'KEAN STEVEN J'
p316
(dp317
g3
I12754
sg4
g5
sg6
F0.125
sg7
I41953
sg8
I00
sg9
g5
sg10
S'steven.kean@enron.com'
p318
sg12
I300000
sg13
F0.18339067069412449
sg14
F0.000628507032701367
sg15
F0.12530303861459963
sg16
g5
sg17
I3639
sg18
g5
sg19
I6759
sg20
I1231
sg21
g5
sg22
I1000000
sg23
I6153642
sg24
I140
sg25
I387
sg26
F0.05725699067909454
sg27
F0.010976948408342482
sg28
I4131594
sg29
I404338
sg30
I1747522
sg31
F0.016874521948880297
sg32
I2022048
sg33
F0.3638560982238148
sg34
F0.2853222518425592
ssS'FOWLER PEGGY'
p319
(dp320
g3
I517
sg4
g5
sg6
g37
sg7
g5
sg8
I00
sg9
g5
sg10
S'kulvinder.fowler@enron.com'
p321
sg12
g5
sg13
g37
sg14
F0.0
sg15
F0.03837802904731693
sg16
g5
sg17
I10
sg18
g5
sg19
I36
sg20
g5
sg21
g5
sg22
g5
sg23
I1884748
sg24
I0
sg25
I0
sg26
F0.0
sg27
F0.0
sg28
I560170
sg29
g5
sg30
g5
sg31
g37
sg32
I1324578
sg33
g37
sg34
F0.019342359767891684
ssS'WASAFF GEORGE'
p322
(dp323
g3
I400
sg4
I831299
sg6
F0.040625
sg7
g5
sg8
I00
sg9
I-583325
sg10
S'george.wasaff@enron.com'
p324
sg12
I200000
sg13
g37
sg14
F0.012833333333333334
sg15
F0.04187382883000104
sg16
g5
sg17
I337
sg18
g5
sg19
I30
sg20
I1425
sg21
g5
sg22
I325000
sg23
I2056427
sg24
I22
sg25
I7
sg26
F0.23333333333333334
sg27
F0.055
sg28
I388167
sg29
I259996
sg30
I1034395
sg31
F0.009988384198489079
sg32
I1668260
sg33
F0.23396546976489707
sg34
F0.8425
ssS'WHITE JR THOMAS E'
p325
(dp326
g3
g5
sg4
g5
sg6
F0.05625
sg7
I81353
sg8
I00
sg9
g5
sg10
S'thomas.white@enron.com'
p327
sg12
g5
sg13
F0.3556213198812745
sg14
g37
sg15
F0.3083709824284946
sg16
g5
sg17
g5
sg18
g5
sg19
g5
sg20
I1085463
sg21
g5
sg22
I450000
sg23
I15144123
sg24
g5
sg25
g5
sg26
g37
sg27
g37
sg28
I13847074
sg29
I317543
sg30
I1934359
sg31
F0.01867866808115385
sg32
I1297049
sg33
F0.2857509237278832
sg34
g37
ssS'CHRISTODOULOU DIOMEDES'
p328
(dp329
g3
g5
sg4
g5
sg6
g37
sg7
g5
sg8
I00
sg9
g5
sg10
S'diomedes.christodoulou@enron.com'
p330
sg12
g5
sg13
g37
sg14
g37
sg15
F0.123760442815831
sg16
g5
sg17
g5
sg18
g5
sg19
g5
sg20
g5
sg21
g5
sg22
g5
sg23
I6077885
sg24
g5
sg25
g5
sg26
g37
sg27
g37
sg28
I950730
sg29
g5
sg30
g5
sg31
g37
sg32
I5127155
sg33
g37
sg34
g37
ssS'ALLEN PHILLIP K'
p331
(dp332
g3
I2902
sg4
I2869717
sg6
F0.521875
sg7
I13868
sg8
I00
sg9
I-3081055
sg10
S'phillip.allen@enron.com'
p333
sg12
I304805
sg13
F0.06062169144485778
sg14
F0.0004796001186833682
sg15
F0.03521763903531165
sg16
I-126027
sg17
I1407
sg18
g5
sg19
I2195
sg20
I152
sg21
g5
sg22
I4175000
sg23
I1729541
sg24
I47
sg25
I65
sg26
F0.029612756264236904
sg27
F0.016195727084769126
sg28
I126027
sg29
I201955
sg30
I4484442
sg31
F0.04330292548962511
sg32
I1729541
sg33
F0.18173547457026182
sg34
F0.4848380427291523
ssS'SHARP VICTORIA T'
p334
(dp335
g3
I3136
sg4
I187469
sg6
F0.075
sg7
I116337
sg8
I00
sg9
g5
sg10
S'vicki.sharp@enron.com'
p336
sg12
I422158
sg13
F0.5085481480833877
sg14
F0.00033763505402160867
sg15
F0.010061804422302078
sg16
g5
sg17
I2477
sg18
g5
sg19
I136
sg20
I2401
sg21
g5
sg22
I600000
sg23
I494136
sg24
I24
sg25
I6
sg26
F0.04411764705882353
sg27
F0.007653061224489796
sg28
I213063
sg29
I248146
sg30
I1576511
sg31
F0.015223195743544988
sg32
I281073
sg33
F0.2233018794915312
sg34
F0.7898596938775511
ssS'JAEDICKE ROBERT'
p337
(dp338
g3
g5
sg4
g5
sg6
g37
sg7
g5
sg8
I00
sg9
I-25000
sg10
g5
sg12
g5
sg13
g37
sg14
g37
sg15
F0.008791474531968775
sg16
I-44093
sg17
g5
sg18
g5
sg19
g5
sg20
g5
sg21
I108750
sg22
g5
sg23
I431750
sg24
g5
sg25
g5
sg26
g37
sg27
g37
sg28
I44093
sg29
g5
sg30
I83750
sg31
F0.0008087115430985846
sg32
I431750
sg33
g37
sg34
g37
ssS'WINOKUR JR. HERBERT S'
p339
(dp340
g3
g5
sg4
g5
sg6
g37
sg7
I1413
sg8
I00
sg9
I-25000
sg10
g5
sg12
g5
sg13
F0.0061766981548589586
sg14
g37
sg15
g37
sg16
g5
sg17
g5
sg18
g5
sg19
g5
sg20
g5
sg21
I108579
sg22
g5
sg23
g5
sg24
g5
sg25
g5
sg26
g37
sg27
g37
sg28
g5
sg29
g5
sg30
I84992
sg31
F0.0008207046145795212
sg32
g5
sg33
g37
sg34
g37
ssS'BROWN MICHAEL'
p341
(dp342
g3
I1486
sg4
g5
sg6
g37
sg7
I49288
sg8
I00
sg9
g5
sg10
S'michael.brown@enron.com'
p343
sg12
g5
sg13
F0.21545442226234138
sg14
F0.0002133736007615796
sg15
g37
sg16
g5
sg17
I761
sg18
g5
sg19
I41
sg20
g5
sg21
g5
sg22
g5
sg23
g5
sg24
I13
sg25
I1
sg26
F0.024390243902439025
sg27
F0.008748317631224764
sg28
g5
sg29
g5
sg30
I49288
sg31
F0.00047593760640290197
sg32
g5
sg33
g37
sg34
F0.5121130551816958
ssS'BADUM JAMES P'
p344
(dp345
g3
g5
sg4
I178980
sg6
g37
sg7
I3486
sg8
I00
sg9
g5
sg10
g5
sg12
g5
sg13
F0.01523847825041637
sg14
g37
sg15
F0.005249777856186667
sg16
g5
sg17
g5
sg18
g5
sg19
g5
sg20
g5
sg21
g5
sg22
g5
sg23
I257817
sg24
g5
sg25
g5
sg26
g37
sg27
g37
sg28
g5
sg29
g5
sg30
I182466
sg31
F0.0017619386319167325
sg32
I257817
sg33
g37
sg34
g37
ssS'HUGHES JAMES A'
p346
(dp347
g3
I719
sg4
g5
sg6
g37
sg7
g5
sg8
I00
sg9
g5
sg10
S'james.hughes@enron.com'
p348
sg12
g5
sg13
g37
sg14
F0.007158635359568027
sg15
F0.022773207568515773
sg16
g5
sg17
I589
sg18
g5
sg19
I34
sg20
g5
sg21
g5
sg22
g5
sg23
I1118394
sg24
I35
sg25
I5
sg26
F0.14705882352941177
sg27
F0.048678720445062586
sg28
I363428
sg29
g5
sg30
g5
sg31
g37
sg32
I754966
sg33
g37
sg34
F0.8191933240611962
ssS'REYNOLDS LAWRENCE'
p349
(dp350
g3
g5
sg4
I51365
sg6
F0.0125
sg7
I8409
sg8
I00
sg9
I-200000
sg10
g5
sg12
I156250
sg13
F0.03675856672626255
sg14
g37
sg15
F0.08596791477301258
sg16
I-140264
sg17
g5
sg18
g5
sg19
g5
sg20
I202052
sg21
g5
sg22
I100000
sg23
I4221891
sg24
g5
sg25
g5
sg26
g37
sg27
g37
sg28
I201483
sg29
I76399
sg30
I394475
sg31
F0.0038091520712097214
sg32
I4160672
sg33
F0.06875001124851295
sg34
g37
ssS'DIMICHELE RICHARD G'
p351
(dp352
g3
g5
sg4
g5
sg6
F0.125
sg7
I35812
sg8
I00
sg9
g5
sg10
S'richard.dimichele@enron.com'
p353
sg12
I694862
sg13
F0.15654629463680753
sg14
g37
sg15
F0.16937016471446045
sg16
g5
sg17
g5
sg18
g5
sg19
g5
sg20
I374689
sg21
g5
sg22
I1000000
sg23
I8317782
sg24
g5
sg25
g5
sg26
g37
sg27
g37
sg28
I126027
sg29
I262788
sg30
I2368151
sg31
F0.022867475217915895
sg32
I8191755
sg33
F0.23647793761664707
sg34
g37
ssS'BHATNAGAR SANJAY'
p354
(dp355
g3
I523
sg4
g5
sg6
g37
sg7
g5
sg8
I00
sg9
g5
sg10
S'sanjay.bhatnagar@enron.com'
p356
sg12
g5
sg13
g37
sg14
F0.0
sg15
g37
sg16
I15456290
sg17
I463
sg18
g5
sg19
I29
sg20
I137864
sg21
I137864
sg22
g5
sS'total_stock_value'
p357
S'NaN'
p358
sg24
I0
sg25
I1
sg26
F0.034482758620689655
sg27
F0.0
sg28
I-2604490
sg29
g5
sg30
I15456290
sg31
F0.14924991207736385
sg32
I2604490
sg33
g37
sg34
F0.8852772466539197
ssS'CARTER REBECCA C'
p359
(dp360
g3
I312
sg4
g5
sg6
F0.0375
sg7
g5
sg8
I00
sg9
I-159792
sg10
S'rebecca.carter@enron.com'
p361
sg12
I75000
sg13
g37
sg14
F0.043376068376068375
sg15
g37
sg16
I-307301
sg17
I196
sg18
g5
sg19
I15
sg20
I540
sg21
g5
sg22
I300000
sg23
g5
sg24
I29
sg25
I7
sg26
F0.4666666666666667
sg27
F0.09294871794871795
sg28
I307301
sg29
I261809
sg30
I477557
sg31
F0.0046114132344779795
sg32
g5
sg33
F0.23559695408267028
sg34
F0.6282051282051282
ssS'BUCHANAN HAROLD G'
p362
(dp363
g3
I1088
sg4
g5
sg6
F0.0625
sg7
I600
sg8
I00
sg9
g5
sg10
S'john.buchanan@enron.com'
p364
sg12
I304805
sg13
F0.00262280176427132
sg14
F0.0
sg15
F0.02065777619005207
sg16
g5
sg17
I23
sg18
g5
sg19
I125
sg20
I1215
sg21
g5
sg22
I500000
sg23
I1014505
sg24
I0
sg25
I0
sg26
F0.0
sg27
F0.0
sg28
I189041
sg29
I248017
sg30
I1054637
sg31
F0.010183846157359545
sg32
I825464
sg33
F0.22318579483792242
sg34
F0.021139705882352942
ssS'YEAP SOON'
p365
(dp366
g3
g5
sg4
g5
sg6
g37
sg7
I55097
sg8
I00
sg9
g5
sg10
g5
sg12
g5
sg13
F0.24084751467676155
sg14
g37
sg15
F0.0039250192190694545
sg16
g5
sg17
g5
sg18
g5
sg19
g5
sg20
g5
sg21
g5
sg22
g5
sg23
I192758
sg24
g5
sg25
g5
sg26
g37
sg27
g37
sg28
g5
sg29
g5
sg30
I55097
sg31
F0.0005320308046579429
sg32
I192758
sg33
g37
sg34
g37
ssS'MURRAY JULIA H'
p367
(dp368
g3
I2192
sg4
g5
sg6
F0.05
sg7
I57580
sg8
I00
sg9
g5
sg10
S'julia.murray@enron.com'
p369
sg12
I125000
sg13
F0.251701542644571
sg14
F0.00022303325223033252
sg15
F0.012165751396281635
sg16
g5
sg17
I395
sg18
g5
sg19
I45
sg20
I330
sg21
g5
sg22
I400000
sg23
I597461
sg24
I11
sg25
I2
sg26
F0.044444444444444446
sg27
F0.005018248175182482
sg28
I196983
sg29
I229284
sg30
I812194
sg31
F0.007842754185497455
sg32
I400478
sg33
F0.2063283233956471
sg34
F0.1802007299270073
ssS'GARLAND C KEVIN'
p370
(dp371
g3
I209
sg4
g5
sg6
F0.10625
sg7
I48405
sg8
I00
sg9
g5
sg10
S'kevin.garland@enron.com'
p372
sg12
I375304
sg13
F0.21159453233258874
sg14
F0.0293605915615485
sg15
F0.018247843141279474
sg16
g5
sg17
I178
sg18
g5
sg19
I44
sg20
I60814
sg21
g5
sg22
I850000
sg23
I896153
sg24
I10
sg25
I27
sg26
F0.6136363636363636
sg27
F0.04784688995215311
sg28
I259907
sg29
I231946
sg30
I1566469
sg31
F0.015126227608431006
sg32
I636246
sg33
F0.20872380671275256
sg34
F0.8516746411483254
ssS'DODSON KEITH'
p373
(dp374
g3
I176
sg4
g5
sg6
F0.00875
sg7
I28164
sg8
I00
sg9
g5
sg10
S'keith.dodson@enron.com'
p375
sg12
g5
sg13
F0.12311431481489576
sg14
F0.012175324675324674
sg15
g37
sg16
g5
sg17
I114
sg18
g5
sg19
I14
sg20
I774
sg21
g5
sg22
I70000
sg23
g5
sg24
I10
sg25
I3
sg26
F0.21428571428571427
sg27
F0.056818181818181816
sg28
g5
sg29
I221003
sg30
I319941
sg31
F0.0030894325947522895
sg32
g5
sg33
F0.19887640853879118
sg34
F0.6477272727272727
ssS'YEAGER F SCOTT'
p376
(dp377
g3
g5
sg4
g5
sg6
g37
sg7
I53947
sg8
I01
sg9
g5
sg10
S'scott.yeager@enron.com'
p378
sg12
g5
sg13
F0.23582047796190816
sg14
g37
sg15
F0.24200242565283647
sg16
g5
sg17
g5
sg18
g5
sg19
g5
sg20
I147950
sg21
g5
sg22
g5
sg23
I11884758
sg24
g5
sg25
g5
sg26
g37
sg27
g37
sg28
I3576206
sg29
I158403
sg30
I360300
sg31
F0.0034791494803393438
sg32
I8308552
sg33
F0.14254385570227615
sg34
g37
ssS'HIRKO JOSEPH'
p379
(dp380
g3
g5
sg4
I10259
sg6
g37
sg7
I77978
sg8
I01
sg9
g5
sg10
S'joe.hirko@enron.com'
p381
sg12
g5
sg13
F0.34086805995724834
sg14
g37
sg15
F0.6264714953211844
sg16
g5
sg17
g5
sg18
g5
sg19
g5
sg20
I2856
sg21
g5
sg22
g5
sg23
I30766064
sg24
g5
sg25
g5
sg26
g37
sg27
g37
sg28
g5
sg29
g5
sg30
I91093
sg31
F0.0008796174399460223
sg32
I30766064
sg33
g37
sg34
g37
ssS'DIETRICH JANET R'
p382
(dp383
g3
I2572
sg4
g5
sg6
F0.075
sg7
I3475
sg8
I00
sg9
g5
sg10
S'janet.dietrich@enron.com'
p384
sg12
I556416
sg13
F0.015190393551404729
sg14
F0.026352168653879383
sg15
F0.037977683521496344
sg16
g5
sg17
I1902
sg18
g5
sg19
I63
sg20
I473
sg21
g5
sg22
I600000
sg23
I1865087
sg24
I305
sg25
I14
sg26
F0.2222222222222222
sg27
F0.11858475894245724
sg28
I315068
sg29
I250100
sg30
I1410464
sg31
F0.013619803199104502
sg32
I1550019
sg33
F0.22506024703534191
sg34
F0.73950233281493
ssS'DERRICK JR. JAMES V'
p385
(dp386
g3
I2181
sg4
g5
sg6
F0.1
sg7
I51124
sg8
I00
sg9
I-1284000
sg10
S'james.derrick@enron.com'
p387
sg12
I484000
sg13
F0.22348019566101163
sg14
F0.000645639988116189
sg15
F0.1798391157106287
sg16
I-1787380
sg17
I1401
sg18
g5
sg19
I909
sg20
I7482
sg21
g5
sg22
I800000
sg23
I8831913
sg24
I64
sg25
I20
sg26
F0.022002200220022004
sg27
F0.029344337459880788
sg28
I1787380
sg29
I492375
sg30
I550981
sg31
F0.00532041426540897
sg32
I8831913
sg33
F0.4430789249661195
sg34
F0.6423658872077029
ssS'FREVERT MARK A'
p388
(dp389
g3
I3275
sg4
I6426990
sg6
F0.25
sg7
I86987
sg8
I00
sg9
I-3367011
sg10
S'mark.frevert@enron.com'
p390
sg12
I1617011
sg13
F0.3802494284477822
sg14
F0.021112322791712105
sg15
F0.29774306202486583
sg16
g5
sg17
I2979
sg18
I2000000
sg19
I21
sg20
I7427621
sg21
g5
sg22
I2000000
sg23
I14622185
sg24
I242
sg25
I6
sg26
F0.2857142857142857
sg27
F0.07389312977099237
sg28
I4188667
sg29
I1060932
sg30
I17252530
sg31
F0.16659486756602535
sg32
I10433518
sg33
F0.9547125869959991
sg34
F0.909618320610687
ssS'PAI LOU L'
p391
(dp392
g3
g5
sg4
g5
sg6
F0.125
sg7
I32047
sg8
I00
sg9
g5
sg10
S'lou.pai@enron.com'
p393
sg12
g5
sg13
F0.14008821356600498
sg14
g37
sg15
F0.4849906774735727
sg16
g5
sg17
g5
sg18
g5
sg19
g5
sg20
I1829457
sg21
g5
sg22
I1000000
sg23
I23817930
sg24
g5
sg25
g5
sg26
g37
sg27
g37
sg28
I8453763
sg29
I261879
sg30
I3123383
sg31
F0.03016018967901954
sg32
I15364167
sg33
F0.23565994575517116
sg34
g37
ssS'BAY FRANKLIN R'
p394
(dp395
g3
g5
sg4
I260455
sg6
F0.05
sg7
I129142
sg8
I00
sg9
I-201641
sg10
S'frank.bay@enron.com'
p396
sg12
g5
sg13
F0.5645231090692113
sg14
g37
sg15
F0.0012831174896525313
sg16
I-82782
sg17
g5
sg18
g5
sg19
g5
sg20
I69
sg21
g5
sg22
I400000
sg23
I63014
sg24
g5
sg25
g5
sg26
g37
sg27
g37
sg28
I145796
sg29
I239671
sg30
I827696
sg31
F0.007992445485092849
sg32
g5
sg33
F0.21567538771374425
sg34
g37
ssS'HAYSLETT RODERICK J'
p397
(dp398
g3
I2649
sg4
g5
sg6
g37
sg7
g5
sg8
I00
sg9
g5
sg10
S'rod.hayslett@enron.com'
p399
sg12
g5
sg13
g37
sg14
F0.0004732104195953233
sg15
F0.007058897361148561
sg16
g5
sg17
I571
sg18
g5
sg19
I1061
sg20
g5
sg21
g5
sg22
g5
sg23
I346663
sg24
I35
sg25
I38
sg26
F0.03581526861451461
sg27
F0.01321253303133258
sg28
I346663
sg29
g5
sg30
g5
sg31
g37
sg32
g5
sg33
g37
sg34
F0.21555303888259722
ssS'FUGH JOHN L'
p400
(dp401
g3
g5
sg4
I50591
sg6
g37
sg7
g5
sg8
I00
sg9
g5
sg10
g5
sg12
g5
sg13
g37
sg14
g37
sg15
F0.003591482790966042
sg16
g5
sg17
g5
sg18
g5
sg19
g5
sg20
g5
sg21
g5
sg22
g5
sg23
I176378
sg24
g5
sg25
g5
sg26
g37
sg27
g37
sg28
g5
sg29
g5
sg30
I50591
sg31
F0.0004885197095749312
sg32
I176378
sg33
g37
sg34
g37
ssS'FALLON JAMES B'
p402
(dp403
g3
I1755
sg4
g5
sg6
F0.3125
sg7
I95924
sg8
I00
sg9
g5
sg10
S'jim.fallon@enron.com'
p404
sg12
I374347
sg13
F0.4193160607266035
sg14
F0.011806267806267808
sg15
F0.04749328640854531
sg16
g5
sg17
I1604
sg18
g5
sg19
I75
sg20
I401481
sg21
g5
sg22
I2500000
sg23
I2332399
sg24
I42
sg25
I37
sg26
F0.49333333333333335
sg27
F0.023931623931623933
sg28
I1392142
sg29
I304588
sg30
I3676340
sg31
F0.03549968470871702
sg32
I940257
sg33
F0.27409296491003887
sg34
F0.913960113960114
ssS'KOENIG MARK E'
p405
(dp406
g3
I2374
sg4
g5
sg6
F0.0875
sg7
I127017
sg8
I01
sg9
g5
sg10
S'mark.koenig@enron.com'
p407
sg12
I300000
sg13
F0.5552340194874171
sg14
F0.005489800709876117
sg15
F0.039096964985476095
sg16
g5
sg17
I2271
sg18
g5
sg19
I61
sg20
I150458
sg21
g5
sg22
I700000
sg23
I1920055
sg24
I53
sg25
I15
sg26
F0.2459016393442623
sg27
F0.02232518955349621
sg28
I1248318
sg29
I309946
sg30
I1587421
sg31
F0.015328545509935503
sg32
I671737
sg33
F0.27891452749946455
sg34
F0.9566133108677338
ssS'SAVAGE FRANK'
p408
(dp409
g3
g5
sg4
g5
sg6
g37
sg7
g5
sg8
I00
sg9
I-121284
sg10
g5
sg12
g5
sg13
g37
sg14
g37
sg15
g37
sg16
g5
sg17
g5
sg18
g5
sg19
g5
sg20
g5
sg21
I125034
sg22
g5
sg23
g5
sg24
g5
sg25
g5
sg26
g37
sg27
g37
sg28
g5
sg29
g5
sg30
I3750
sg31
F3.621096461635453e-05
sg32
g5
sg33
g37
sg34
g37
ssS'IZZO LAWRENCE L'
p410
(dp411
g3
I496
sg4
g5
sg6
g37
sg7
I28093
sg8
I00
sg9
g5
sg10
S'larry.izzo@enron.com'
p412
sg12
I312500
sg13
F0.122803949939457
sg14
F0.014855687606112052
sg15
F0.1185088730667461
sg16
g5
sg17
I437
sg18
g5
sg19
I19
sg20
I1553729
sg21
g5
sg22
g5
sg23
I5819980
sg24
I28
sg25
I5
sg26
F0.2631578947368421
sg27
F0.056451612903225805
sg28
I3654808
sg29
I85274
sg30
I1979596
sg31
F0.01911548818951386
sg32
I2165172
sg33
F0.07673645544059075
sg34
F0.8810483870967742
ssS'TILNEY ELIZABETH A'
p413
(dp414
g3
I460
sg4
g5
sg6
F0.0375
sg7
g5
sg8
I00
sg9
I-575000
sg10
S'elizabeth.tilney@enron.com'
p415
sg12
I275000
sg13
g37
sg14
F0.012585812356979404
sg15
F0.023784160961829465
sg16
g5
sg17
I379
sg18
g5
sg19
I19
sg20
I152055
sg21
g5
sg22
I300000
sg23
I1168042
sg24
I10
sg25
I11
sg26
F0.5789473684210527
sg27
F0.021739130434782608
sg28
I576792
sg29
I247338
sg30
I399393
sg31
F0.0038566415442719162
sg32
I591250
sg33
F0.22257477561466374
sg34
F0.8239130434782609
ssS'MARTIN AMANDA K'
p416
(dp417
g3
I1522
sg4
I85430
sg6
g37
sg7
I8211
sg8
I00
sg9
g5
sg10
S'a..martin@enron.com'
p418
sg12
I5145434
sg13
F0.03589304214405301
sg14
F0.0
sg15
F0.042156438847439824
sg16
g5
sg17
I477
sg18
g5
sg19
I230
sg20
I2818454
sg21
g5
sg22
g5
sg23
I2070306
sg24
I8
sg25
I0
sg26
F0.0
sg27
F0.005256241787122208
sg28
g5
sg29
I349487
sg30
I8407016
sg31
F0.08118030904136705
sg32
I2070306
sg33
F0.3144967235331489
sg34
F0.31340341655716164
ssS'BUY RICHARD B'
p419
(dp420
g3
I3523
sg4
I649584
sg6
F0.1125
sg7
g5
sg8
I00
sg9
I-694862
sg10
S'rick.buy@enron.com'
p421
sg12
I769862
sg13
g37
sg14
F0.0029856708823498487
sg15
F0.07013774239983898
sg16
g5
sg17
I2333
sg18
g5
sg19
I1053
sg20
I400572
sg21
g5
sg22
I900000
sg23
I3444470
sg24
I156
sg25
I71
sg26
F0.06742640075973409
sg27
F0.04428044280442804
sg28
I901657
sg29
I330546
sg30
I2355702
sg31
F0.02274726447164683
sg32
I2542813
sg33
F0.29745207683544234
sg34
F0.6622196991200682
ssS'GRAMM WENDY L'
p422
(dp423
g3
g5
sg4
g5
sg6
g37
sg7
g5
sg8
I00
sg9
g5
sg10
g5
sg12
g5
sg13
g37
sg14
g37
sg15
g37
sg16
g5
sg17
g5
sg18
g5
sg19
g5
sg20
g5
sg21
I119292
sg22
g5
sg23
g5
sg24
g5
sg25
g5
sg26
g37
sg27
g37
sg28
g5
sg29
g5
sg30
I119292
sg31
F0.0011519142376037773
sg32
g5
sg33
g37
sg34
g37
ssS'CAUSEY RICHARD A'
p424
(dp425
g3
I1892
sg4
g5
sg6
F0.125
sg7
I30674
sg8
I01
sg9
I-235000
sg10
S'richard.causey@enron.com'
p426
sg12
I350000
sg13
F0.13408636886209746
sg14
F0.0075074427233895675
sg15
F0.05094805591634369
sg16
g5
sg17
I1585
sg18
g5
sg19
I49
sg20
I307895
sg21
g5
sg22
I1000000
sg23
I2502063
sg24
I58
sg25
I12
sg26
F0.24489795918367346
sg27
F0.0306553911205074
sg28
I2502063
sg29
I415189
sg30
I1868758
sg31
F0.01804520795054119
sg32
g5
sg33
F0.3736207073424893
sg34
F0.837737843551797
ssS'TAYLOR MITCHELL S'
p427
(dp428
g3
I533
sg4
I227449
sg6
F0.075
sg7
g5
sg8
I00
sg9
g5
sg10
S'mitchell.taylor@enron.com'
p429
sg12
g5
sg13
g37
sg14
F0.0
sg15
F0.07625823766763311
sg16
g5
sg17
I300
sg18
g5
sg19
I29
sg20
g5
sg21
g5
sg22
I600000
sg23
I3745048
sg24
I0
sg25
I0
sg26
F0.0
sg27
F0.0
sg28
I563798
sg29
I265214
sg30
I1092663
sg31
F0.010551034994826613
sg32
I3181250
sg33
F0.23866104900932097
sg34
F0.5628517823639775
ssS'DONAHUE JR JEFFREY M'
p430
(dp431
g3
I865
sg4
g5
sg6
F0.1
sg7
I96268
sg8
I00
sg9
I-300000
sg10
S'jeff.donahue@enron.com'
p432
sg12
g5
sg13
F0.4208198004047857
sg14
F0.10867052023121387
sg15
F0.022011530912249822
sg16
g5
sg17
I772
sg18
g5
sg19
I22
sg20
I891
sg21
g5
sg22
I800000
sg23
I1080988
sg24
I188
sg25
I11
sg26
F0.5
sg27
F0.21734104046242775
sg28
I315068
sg29
I278601
sg30
I875760
sg31
F0.008456563832644972
sg32
I765920
sg33
F0.25070775643459936
sg34
F0.892485549132948
ssS'GLISAN JR BEN F'
p433
(dp434
g3
I873
sg4
g5
sg6
F0.075
sg7
I125978
sg8
I01
sg9
g5
sg10
S'ben.glisan@enron.com'
p435
sg12
I71023
sg13
F0.5506922010989539
sg14
F0.02233676975945017
sg15
F0.015853080094883988
sg16
g5
sg17
I874
sg18
g5
sg19
I16
sg20
I200308
sg21
g5
sg22
I600000
sg23
I778546
sg24
I52
sg25
I6
sg26
F0.375
sg27
F0.05956471935853379
sg28
I393818
sg29
I274975
sg30
I1272284
sg31
F0.01228550157492107
sg32
I384728
sg33
F0.24744478779905296
sg34
F1.0011454753722795
ss.