(lp0
S'poi'
p1
aS'frac_salary'
p2
aS'frac_bonus'
p3
aS'frac_total_payments'
p4
aS'frac_expenses'
p5
aS'frac_total_stock_value'
p6
aS'frac_from_poi_to_this_person'
p7
aS'frac_from_this_person_to_poi'
p8
aS'frac_shared_receipt_with_poi'
p9
aS'multiply_emails'
p10
a.